(dp1
I0
I1
sI1
I1
sI2
I1
sI3
I1
sI4
I15958
sI5
I2167
sI6
I6170
sI7
I4706
sI8
I7591
sI9
I3572
sI10
I3989
sI11
I1061
sI12
I5521
sI13
I17370
sI14
I996
sI15
I578
sI16
I432
sI17
I21836
sI18
I27608
sI19
I1
sI20
I6187
sI21
I1230
sI22
I26
sI23
I5590
sI24
I650
sI25
I1103
sI26
I5242
sI27
I86
sI28
I27963
sI29
I533
sI30
I584
sI31
I9253
sI32
I885
sI33
I15
sI34
I4
sI35
I668
sI36
I314
sI37
I4340
sI38
I89
sI39
I2
sI40
I624
sI41
I2427
sI42
I1381
sI43
I9
sI44
I4463
sI45
I6798
sI46
I166
sI47
I1162
sI48
I336
sI49
I1579
sI50
I1
sI51
I290
sI52
I159
sI53
I1383
sI54
I582
sI55
I33
sI56
I377
sI57
I6723
sI58
I91
sI59
I20
sI60
I2216
sI61
I1233
sI62
I1842
sI63
I530
sI64
I1505
sI65
I456
sI66
I405
sI67
I3081
sI68
I609
sI69
I3462
sI70
I533
sI71
I16
sI72
I188
sI73
I385
sI74
I1015
sI75
I6007
sI76
I2
sI77
I693
sI78
I1733
sI79
I5353
sI80
I106
sI81
I6463
sI82
I973
sI83
I873
sI84
I9611
sI85
I181
sI86
I600
sI87
I61
sI88
I78
sI89
I6
sI90
I1
sI91
I616
sI92
I50
sI93
I819
sI94
I14
sI95
I142
sI96
I1839
sI97
I10
sI98
I1429
sI99
I300
sI100
I613
sI101
I372
sI102
I536
sI103
I52
sI104
I554
sI105
I188
sI106
I78
sI107
I231
sI108
I92
sI109
I401
sI110
I1688
sI111
I4609
sI112
I516
sI113
I574
sI114
I3
sI115
I553
sI116
I805
sI117
I10
sI118
I3
sI119
I288
sI120
I646
sI121
I74
sI122
I53
sI123
I1437
sI124
I1903
sI125
I220
sI126
I1324
sI127
I55
sI128
I540
sI129
I307
sI130
I291
sI131
I453
sI132
I60
sI133
I1074
sI134
I1006
sI135
I348
sI136
I49
sI137
I15
sI138
I1110
sI139
I57
sI140
I1523
sI141
I184
sI142
I207
sI143
I1
sI144
I324
sI145
I6
sI146
I543
sI147
I521
sI148
I14
sI149
I47
sI150
I796
sI151
I2277
sI152
I358
sI153
I10
sI154
I20
sI155
I669
sI156
I1082
sI157
I579
sI158
I248
sI159
I475
sI160
I137
sI161
I1031
sI162
I210
sI163
I387
sI164
I1523
sI165
I456
sI166
I21
sI167
I64
sI168
I62
sI169
I237
sI170
I34
sI171
I23
sI172
I2168
sI173
I56
sI174
I115
sI175
I115
sI176
I1
sI177
I578
sI178
I37
sI179
I1
sI180
I498
sI181
I1
sI182
I152
sI183
I1192
sI184
I127
sI185
I647
sI186
I123
sI187
I46
sI188
I200
sI189
I101
sI190
I48
sI191
I792
sI192
I1488
sI193
I1
sI194
I1
sI195
I617
sI196
I262
sI197
I5
sI198
I10
sI199
I13
sI200
I136
sI201
I275
sI202
I55
sI203
I23
sI204
I924
sI205
I119
sI206
I376
sI207
I79
sI208
I220
sI209
I38
sI210
I10
sI211
I57
sI212
I1
sI213
I137
sI214
I1
sI215
I13
sI216
I848
sI217
I632
sI218
I40
sI219
I601
sI220
I5
sI221
I573
sI222
I652
sI223
I592
sI224
I27
sI225
I40
sI226
I114
sI227
I699
sI228
I43
sI229
I2
sI230
I19
sI231
I1
sI232
I2298
sI233
I18
sI234
I227
sI235
I162
sI236
I12
sI237
I1167
sI238
I1
sI239
I14
sI240
I153
sI241
I8
sI242
I1
sI243
I774
sI244
I68
sI245
I13
sI246
I440
sI247
I16
sI248
I16
sI249
I21
sI250
I198
sI251
I4
sI252
I14
sI253
I70
sI254
I5
sI255
I730
sI256
I4
sI257
I92
sI258
I2
sI259
I880
sI260
I1766
sI261
I15
sI262
I5
sI263
I383
sI264
I181
sI265
I578
sI266
I937
sI267
I2
sI268
I1
sI269
I1
sI270
I86
sI271
I128
sI272
I542
sI273
I25
sI274
I164
sI275
I119
sI276
I1034
sI277
I175
sI278
I38
sI279
I284
sI280
I1664
sI281
I3
sI282
I10
sI283
I1
sI284
I20
sI285
I24
sI286
I201
sI287
I65
sI288
I18
sI289
I66
sI290
I6
sI291
I14
sI292
I1
sI293
I70
sI294
I9
sI295
I912
sI296
I19
sI297
I103
sI298
I3
sI299
I37
sI300
I570
sI301
I432
sI302
I43
sI303
I16
sI304
I23
sI305
I26
sI306
I14
sI307
I30
sI308
I530
sI309
I148
sI310
I289
sI311
I28
sI312
I34
sI313
I32
sI314
I2
sI315
I191
sI316
I501
sI317
I20
sI318
I124
sI319
I42
sI320
I378
sI321
I21
sI322
I32
sI323
I3
sI324
I128
sI325
I94
sI326
I20
sI327
I12
sI328
I11
sI329
I135
sI330
I4
sI331
I30
sI332
I4
sI333
I16
sI334
I19
sI335
I162
sI336
I14
sI337
I5
sI338
I296
sI339
I63
sI340
I128
sI341
I90
sI342
I249
sI343
I6
sI344
I240
sI345
I34
sI346
I20
sI347
I4
sI348
I19
sI349
I32
sI350
I54
sI351
I52
sI352
I139
sI353
I105
sI354
I92
sI355
I346
sI356
I175
sI357
I1028
sI358
I125
sI359
I1131
sI360
I1
sI361
I3
sI362
I104
sI363
I76
sI364
I44
sI365
I56
sI366
I9
sI367
I1
sI368
I10
sI369
I30
sI370
I1464
sI371
I40
sI372
I2284
sI373
I22
sI374
I17
sI375
I7
sI376
I10
sI377
I56
sI378
I26
sI379
I89
sI380
I1
sI381
I294
sI382
I70
sI383
I27
sI384
I5
sI385
I128
sI386
I2
sI387
I14
sI388
I3
sI389
I29
sI390
I154
sI391
I5
sI392
I6
sI393
I193
sI394
I136
sI395
I11
sI396
I131
sI397
I103
sI398
I3
sI399
I225
sI400
I14
sI401
I236
sI402
I3
sI403
I29
sI404
I197
sI405
I36
sI406
I75
sI407
I35
sI408
I1
sI409
I153
sI410
I217
sI411
I21
sI412
I31
sI413
I125
sI414
I257
sI415
I4
sI416
I5
sI417
I4
sI418
I4
sI419
I683
sI420
I1
sI421
I36
sI422
I4
sI423
I58
sI424
I1
sI425
I1
sI426
I3
sI427
I108
sI428
I20
sI429
I9
sI430
I2
sI431
I10
sI432
I21
sI433
I54
sI434
I14
sI435
I1079
sI436
I845
sI437
I32
sI438
I80
sI439
I12
sI440
I367
sI441
I183
sI442
I4
sI443
I11
sI444
I11
sI445
I20
sI446
I15
sI447
I1
sI448
I2
sI449
I44
sI450
I90
sI451
I11
sI452
I409
sI453
I387
sI454
I254
sI455
I994
sI456
I109
sI457
I38
sI458
I75
sI459
I4
sI460
I10
sI461
I185
sI462
I79
sI463
I1
sI464
I25
sI465
I21
sI466
I280
sI467
I1
sI468
I9
sI469
I3
sI470
I49
sI471
I36
sI472
I1
sI473
I1020
sI474
I70
sI475
I98
sI476
I155
sI477
I5
sI478
I2
sI479
I143
sI480
I42
sI481
I6
sI482
I490
sI483
I5
sI484
I141
sI485
I44
sI486
I158
sI487
I6
sI488
I18
sI489
I119
sI490
I522
sI491
I220
sI492
I20
sI493
I48
sI494
I1
sI495
I32
sI496
I87
sI497
I7
sI498
I23
sI499
I76
sI500
I434
sI501
I60
sI502
I20
sI503
I1
sI504
I108
sI505
I3
sI506
I20
sI507
I2
sI508
I44
sI509
I14
sI510
I53
sI511
I8
sI512
I246
sI513
I1
sI514
I71
sI515
I134
sI516
I78
sI517
I24
sI518
I46
sI519
I29
sI520
I14
sI521
I49
sI522
I28
sI523
I38
sI524
I126
sI525
I14
sI526
I230
sI527
I46
sI528
I84
sI529
I1
sI530
I4
sI531
I278
sI532
I804
sI533
I4
sI534
I22
sI535
I5
sI536
I498
sI537
I56
sI538
I496
sI539
I124
sI540
I188
sI541
I106
sI542
I9
sI543
I75
sI544
I235
sI545
I1
sI546
I50
sI547
I2
sI548
I204
sI549
I1
sI550
I21
sI551
I67
sI552
I16
sI553
I3
sI554
I1304
sI555
I18
sI556
I2
sI557
I48
sI558
I294
sI559
I3
sI560
I16
sI561
I4
sI562
I14
sI563
I2
sI564
I10
sI565
I119
sI566
I2
sI567
I28
sI568
I107
sI569
I1
sI570
I33
sI571
I169
sI572
I12
sI573
I12
sI574
I1
sI575
I3
sI576
I165
sI577
I5
sI578
I34
sI579
I132
sI580
I9
sI581
I96
sI582
I15
sI583
I91
sI584
I10
sI585
I22
sI586
I1
sI587
I19
sI588
I19
sI589
I154
sI590
I124
sI591
I100
sI592
I181
sI593
I1
sI594
I52
sI595
I250
sI596
I218
sI597
I127
sI598
I13
sI599
I8
sI600
I1
sI601
I21
sI602
I1
sI603
I4
sI604
I1
sI605
I4
sI606
I126
sI607
I5
sI608
I132
sI609
I66
sI610
I52
sI611
I17
sI612
I501
sI613
I82
sI614
I105
sI615
I14
sI616
I27
sI617
I15
sI618
I64
sI619
I22
sI620
I48
sI621
I6
sI622
I7
sI623
I4
sI624
I43
sI625
I61
sI626
I33
sI627
I121
sI628
I25
sI629
I22
sI630
I10
sI631
I6
sI632
I1
sI633
I3
sI634
I213
sI635
I13
sI636
I8
sI637
I48
sI638
I2
sI639
I1
sI640
I3
sI641
I200
sI642
I5
sI643
I7
sI644
I22
sI645
I1
sI646
I8
sI647
I6
sI648
I57
sI649
I12
sI650
I32
sI651
I3
sI652
I1
sI653
I24
sI654
I3
sI655
I11
sI656
I145
sI657
I14
sI658
I1
sI659
I1
sI660
I4
sI661
I30
sI662
I48
sI663
I18
sI664
I1
sI665
I6
sI666
I5
sI667
I5
sI668
I46
sI669
I34
sI670
I192
sI671
I22
sI672
I235
sI673
I30
sI674
I13
sI675
I28
sI676
I7
sI677
I39
sI678
I28
sI679
I114
sI680
I94
sI681
I12
sI682
I88
sI683
I2
sI684
I1
sI685
I32
sI686
I10
sI687
I7
sI688
I16
sI689
I8
sI690
I1
sI691
I1
sI692
I4
sI693
I2
sI694
I22
sI695
I207
sI696
I1
sI697
I17
sI698
I9
sI699
I19
sI700
I16
sI701
I10
sI702
I4
sI703
I25
sI704
I5
sI705
I2
sI706
I7
sI707
I55
sI708
I3
sI709
I141
sI710
I6
sI711
I2
sI712
I65
sI713
I2
sI714
I7
sI715
I1
sI716
I6
sI717
I1
sI718
I11
sI719
I1
sI720
I77
sI721
I32
sI722
I56
sI723
I19
sI724
I11
sI725
I29
sI726
I269
sI727
I56
sI728
I11
sI729
I7
sI730
I83
sI731
I23
sI732
I82
sI733
I72
sI734
I1
sI735
I40
sI736
I133
sI737
I6
sI738
I66
sI739
I27
sI740
I1
sI741
I206
sI742
I76
sI743
I68
sI744
I40
sI745
I5
sI746
I355
sI747
I8
sI748
I55
sI749
I7
sI750
I35
sI751
I102
sI752
I29
sI753
I14
sI754
I8
sI755
I1
sI756
I3
sI757
I67
sI758
I2
sI759
I101
sI760
I1
sI761
I101
sI762
I2
sI763
I121
sI764
I1
sI765
I3
sI766
I144
sI767
I79
sI768
I9
sI769
I51
sI770
I3
sI771
I9
sI772
I3
sI773
I102
sI774
I2
sI775
I6
sI776
I32
sI777
I12
sI778
I5
sI779
I57
sI780
I1
sI781
I425
sI782
I3
sI783
I31
sI784
I50
sI785
I4
sI786
I80
sI787
I5
sI788
I6
sI789
I1
sI790
I33
sI791
I49
sI792
I114
sI793
I103
sI794
I15
sI795
I1
sI796
I18
sI797
I18
sI798
I1
sI799
I14
sI800
I1
sI801
I229
sI802
I116
sI803
I64
sI804
I7
sI805
I38
sI806
I2
sI807
I4
sI808
I4
sI809
I72
sI810
I9
sI811
I201
sI812
I2
sI813
I1
sI814
I1
sI815
I2
sI816
I14
sI817
I28
sI818
I26
sI819
I1
sI820
I5
sI821
I49
sI822
I22
sI823
I29
sI824
I8
sI825
I20
sI826
I25
sI827
I20
sI828
I9
sI829
I12
sI830
I2
sI831
I4
sI832
I1
sI833
I3
sI834
I1
sI835
I8
sI836
I58
sI837
I11
sI838
I1
sI839
I10
sI840
I2
sI841
I52
sI842
I81
sI843
I129
sI844
I103
sI845
I7
sI846
I3
sI847
I19
sI848
I1
sI849
I51
sI850
I5
sI851
I36
sI852
I8
sI853
I12
sI854
I15
sI855
I22
sI856
I1
sI857
I122
sI858
I8
sI859
I81
sI860
I13
sI861
I56
sI862
I6
sI863
I185
sI864
I123
sI865
I27
sI866
I1
sI867
I38
sI868
I24
sI869
I71
sI870
I17
sI871
I184
sI872
I112
sI873
I2
sI874
I123
sI875
I7
sI876
I4
sI877
I1
sI878
I10
sI879
I1
sI880
I48
sI881
I44
sI882
I3
sI883
I9
sI884
I3
sI885
I70
sI886
I13
sI887
I16
sI888
I9
sI889
I10
sI890
I1
sI891
I3
sI892
I5
sI893
I1
sI894
I52
sI895
I133
sI896
I105
sI897
I11
sI898
I26
sI899
I22
sI900
I25
sI901
I3
sI902
I52
sI903
I1
sI904
I37
sI905
I2
sI906
I19
sI907
I1
sI908
I80
sI909
I4
sI910
I1
sI911
I3
sI912
I99
sI913
I7
sI914
I4
sI915
I7
sI916
I43
sI917
I372
sI918
I61
sI919
I3
sI920
I6
sI921
I109
sI922
I19
sI923
I25
sI924
I15
sI925
I56
sI926
I86
sI927
I2
sI928
I2
sI929
I27
sI930
I3
sI931
I36
sI932
I43
sI933
I1
sI934
I107
sI935
I36
sI936
I188
sI937
I107
sI938
I15
sI939
I128
sI940
I48
sI941
I18
sI942
I2
sI943
I216
sI944
I38
sI945
I5
sI946
I172
sI947
I9
sI948
I1
sI949
I11
sI950
I1
sI951
I7
sI952
I86
sI953
I40
sI954
I36
sI955
I3
sI956
I27
sI957
I1
sI958
I4
sI959
I6
sI960
I67
sI961
I6
sI962
I1
sI963
I20
sI964
I1
sI965
I53
sI966
I65
sI967
I88
sI968
I1
sI969
I49
sI970
I1
sI971
I5
sI972
I9
sI973
I12
sI974
I7
sI975
I6
sI976
I19
sI977
I19
sI978
I2
sI979
I1
sI980
I1
sI981
I1
sI982
I1
sI983
I1
sI984
I38
sI985
I51
sI986
I1
sI987
I5
sI988
I13
sI989
I4
sI990
I3
sI991
I8
sI992
I2
sI993
I2
sI994
I53
sI995
I3
sI996
I23
sI997
I34
sI998
I43
sI999
I14
sI1000
I66
sI1001
I1
sI1002
I3
sI1003
I1
sI1004
I1
sI1005
I2
sI1006
I1
sI1007
I11
sI1008
I3
sI1009
I19
sI1010
I5
sI1011
I4
sI1012
I14
sI1013
I36
sI1014
I10
sI1015
I154
sI1016
I28
sI1017
I1
sI1018
I1
sI1019
I2
sI1020
I13
sI1021
I2
sI1022
I1
sI1023
I5
sI1024
I1
sI1025
I1
sI1026
I250
sI1027
I1
sI1028
I2
sI1029
I38
sI1030
I21
sI1031
I1
sI1032
I97
sI1033
I5
sI1034
I19
sI1035
I3
sI1036
I14
sI1037
I45
sI1038
I37
sI1039
I13
sI1040
I1
sI1041
I3
sI1042
I28
sI1043
I22
sI1044
I56
sI1045
I11
sI1046
I32
sI1047
I3
sI1048
I2
sI1049
I7
sI1050
I74
sI1051
I14
sI1052
I88
sI1053
I69
sI1054
I143
sI1055
I14
sI1056
I46
sI1057
I7
sI1058
I1
sI1059
I89
sI1060
I15
sI1061
I54
sI1062
I1
sI1063
I14
sI1064
I5
sI1065
I13
sI1066
I68
sI1067
I1
sI1068
I17
sI1069
I71
sI1070
I44
sI1071
I15
sI1072
I13
sI1073
I4
sI1074
I14
sI1075
I37
sI1076
I93
sI1077
I12
sI1078
I36
sI1079
I1
sI1080
I31
sI1081
I12
sI1082
I106
sI1083
I26
sI1084
I2
sI1085
I1
sI1086
I1
sI1087
I12
sI1088
I19
sI1089
I1
sI1090
I1
sI1091
I1
sI1092
I10
sI1093
I3
sI1094
I848
sI1095
I7
sI1096
I12
sI1097
I38
sI1098
I2
sI1099
I11
sI1100
I14
sI1101
I1
sI1102
I3
sI1103
I3
sI1104
I53
sI1105
I1
sI1106
I2
sI1107
I3
sI1108
I10
sI1109
I76
sI1110
I4
sI1111
I1
sI1112
I1
sI1113
I1
sI1114
I20
sI1115
I1
sI1116
I6
sI1117
I2
sI1118
I2
sI1119
I2
sI1120
I116
sI1121
I38
sI1122
I19
sI1123
I1
sI1124
I14
sI1125
I1
sI1126
I13
sI1127
I2
sI1128
I119
sI1129
I11
sI1130
I85
sI1131
I49
sI1132
I119
sI1133
I2
sI1134
I2
sI1135
I1
sI1136
I13
sI1137
I4
sI1138
I6
sI1139
I3
sI1140
I34
sI1141
I1
sI1142
I20
sI1143
I16
sI1144
I1
sI1145
I3
sI1146
I1
sI1147
I13
sI1148
I21
sI1149
I14
sI1150
I12
sI1151
I1
sI1152
I63
sI1153
I2
sI1154
I1
sI1155
I6
sI1156
I7
sI1157
I10
sI1158
I17
sI1159
I11
sI1160
I17
sI1161
I4
sI1162
I32
sI1163
I1
sI1164
I13
sI1165
I6
sI1166
I5
sI1167
I68
sI1168
I5
sI1169
I1
sI1170
I26
sI1171
I1
sI1172
I6
sI1173
I6
sI1174
I73
sI1175
I8
sI1176
I1
sI1177
I5
sI1178
I1
sI1179
I28
sI1180
I3
sI1181
I1
sI1182
I29
sI1183
I44
sI1184
I15
sI1185
I1
sI1186
I6
sI1187
I25
sI1188
I12
sI1189
I30
sI1190
I18
sI1191
I1
sI1192
I16
sI1193
I1
sI1194
I4
sI1195
I13
sI1196
I6
sI1197
I7
sI1198
I1
sI1199
I18
sI1200
I3
sI1201
I4
sI1202
I13
sI1203
I12
sI1204
I5
sI1205
I16
sI1206
I1
sI1207
I1
sI1208
I7
sI1209
I1
sI1210
I2
sI1211
I1
sI1212
I3
sI1213
I23
sI1214
I21
sI1215
I17
sI1216
I21
sI1217
I2
sI1218
I12
sI1219
I6
sI1220
I25
sI1221
I8
sI1222
I23
sI1223
I48
sI1224
I1
sI1225
I1
sI1226
I22
sI1227
I2
sI1228
I3
sI1229
I35
sI1230
I28
sI1231
I36
sI1232
I11
sI1233
I41
sI1234
I1
sI1235
I1
sI1236
I3
sI1237
I9
sI1238
I8
sI1239
I11
sI1240
I1
sI1241
I3
sI1242
I1
sI1243
I21
sI1244
I1
sI1245
I6
sI1246
I2
sI1247
I15
sI1248
I1
sI1249
I8
sI1250
I1
sI1251
I1
sI1252
I1
sI1253
I8
sI1254
I53
sI1255
I32
sI1256
I426
sI1257
I18
sI1258
I4
sI1259
I1
sI1260
I1
sI1261
I107
sI1262
I4
sI1263
I3
sI1264
I14
sI1265
I3
sI1266
I3
sI1267
I21
sI1268
I5
sI1269
I1
sI1270
I1
sI1271
I1
sI1272
I17
sI1273
I1
sI1274
I59
sI1275
I1
sI1276
I7
sI1277
I3
sI1278
I1
sI1279
I5
sI1280
I10
sI1281
I16
sI1282
I1
sI1283
I7
sI1284
I10
sI1285
I128
sI1286
I4
sI1287
I1
sI1288
I1
sI1289
I20
sI1290
I7
sI1291
I26
sI1292
I17
sI1293
I55
sI1294
I2
sI1295
I39
sI1296
I4
sI1297
I14
sI1298
I2
sI1299
I4
sI1300
I14
sI1301
I21
sI1302
I3
sI1303
I26
sI1304
I1
sI1305
I1
sI1306
I43
sI1307
I10
sI1308
I1
sI1309
I1
sI1310
I1
sI1311
I33
sI1312
I10
sI1313
I1
sI1314
I3
sI1315
I3
sI1316
I59
sI1317
I1
sI1318
I7
sI1319
I14
sI1320
I41
sI1321
I7
sI1322
I1
sI1323
I13
sI1324
I61
sI1325
I2
sI1326
I18
sI1327
I30
sI1328
I1
sI1329
I1
sI1330
I6
sI1331
I5
sI1332
I27
sI1333
I34
sI1334
I6
sI1335
I1
sI1336
I7
sI1337
I20
sI1338
I121
sI1339
I35
sI1340
I2
sI1341
I1
sI1342
I2
sI1343
I11
sI1344
I3
sI1345
I6
sI1346
I3
sI1347
I1
sI1348
I7
sI1349
I1
sI1350
I26
sI1351
I1
sI1352
I1
sI1353
I20
sI1354
I4
sI1355
I1
sI1356
I1
sI1357
I1
sI1358
I1
sI1359
I3
sI1360
I6
sI1361
I1
sI1362
I1
sI1363
I3
sI1364
I11
sI1365
I23
sI1366
I1
sI1367
I1
sI1368
I15
sI1369
I63
sI1370
I5
sI1371
I10
sI1372
I1
sI1373
I5
sI1374
I1
sI1375
I1
sI1376
I36
sI1377
I31
sI1378
I1
sI1379
I3
sI1380
I26
sI1381
I1
sI1382
I7
sI1383
I34
sI1384
I19
sI1385
I1
sI1386
I1
sI1387
I5
sI1388
I3
sI1389
I22
sI1390
I28
sI1391
I8
sI1392
I24
sI1393
I1
sI1394
I1
sI1395
I3
sI1396
I7
sI1397
I2
sI1398
I3
sI1399
I1
sI1400
I16
sI1401
I8
sI1402
I41
sI1403
I10
sI1404
I22
sI1405
I1
sI1406
I1
sI1407
I9
sI1408
I10
sI1409
I6
sI1410
I24
sI1411
I24
sI1412
I29
sI1413
I3
sI1414
I26
sI1415
I14
sI1416
I22
sI1417
I94
sI1418
I1
sI1419
I3
sI1420
I25
sI1421
I1
sI1422
I2
sI1423
I14
sI1424
I1
sI1425
I2
sI1426
I7
sI1427
I5
sI1428
I23
sI1429
I1
sI1430
I9
sI1431
I10
sI1432
I1
sI1433
I2
sI1434
I7
sI1435
I3
sI1436
I1
sI1437
I3
sI1438
I1
sI1439
I1
sI1440
I9
sI1441
I2
sI1442
I54
sI1443
I3
sI1444
I37
sI1445
I6
sI1446
I5
sI1447
I1
sI1448
I4
sI1449
I6
sI1450
I2
sI1451
I16
sI1452
I69
sI1453
I2
sI1454
I3
sI1455
I23
sI1456
I3
sI1457
I1
sI1458
I26
sI1459
I40
sI1460
I5
sI1461
I1
sI1462
I1
sI1463
I1
sI1464
I6
sI1465
I18
sI1466
I1
sI1467
I19
sI1468
I13
sI1469
I1
sI1470
I9
sI1471
I1
sI1472
I5
sI1473
I1
sI1474
I24
sI1475
I7
sI1476
I15
sI1477
I3
sI1478
I1
sI1479
I23
sI1480
I12
sI1481
I4
sI1482
I3
sI1483
I1
sI1484
I8
sI1485
I24
sI1486
I11
sI1487
I2
sI1488
I1
sI1489
I7
sI1490
I18
sI1491
I13
sI1492
I1
sI1493
I13
sI1494
I2
sI1495
I7
sI1496
I9
sI1497
I2
sI1498
I4
sI1499
I29
sI1500
I1
sI1501
I1
sI1502
I27
sI1503
I1
sI1504
I3
sI1505
I59
sI1506
I2
sI1507
I5
sI1508
I1
sI1509
I48
sI1510
I4
sI1511
I14
sI1512
I56
sI1513
I39
sI1514
I12
sI1515
I3
sI1516
I18
sI1517
I21
sI1518
I1
sI1519
I5
sI1520
I2
sI1521
I16
sI1522
I13
sI1523
I1
sI1524
I12
sI1525
I8
sI1526
I1
sI1527
I3
sI1528
I13
sI1529
I1
sI1530
I1
sI1531
I2
sI1532
I5
sI1533
I3
sI1534
I44
sI1535
I31
sI1536
I3
sI1537
I18
sI1538
I37
sI1539
I10
sI1540
I19
sI1541
I16
sI1542
I2
sI1543
I30
sI1544
I11
sI1545
I3
sI1546
I14
sI1547
I2
sI1548
I4
sI1549
I65
sI1550
I2
sI1551
I11
sI1552
I1
sI1553
I30
sI1554
I2
sI1555
I1
sI1556
I5
sI1557
I16
sI1558
I18
sI1559
I3
sI1560
I4
sI1561
I4
sI1562
I1
sI1563
I11
sI1564
I2
sI1565
I1
sI1566
I13
sI1567
I13
sI1568
I7
sI1569
I16
sI1570
I1
sI1571
I14
sI1572
I4
sI1573
I4
sI1574
I14
sI1575
I7
sI1576
I1
sI1577
I3
sI1578
I12
sI1579
I7
sI1580
I25
sI1581
I8
sI1582
I2
sI1583
I2
sI1584
I8
sI1585
I1
sI1586
I6
sI1587
I1
sI1588
I4
sI1589
I30
sI1590
I1
sI1591
I14
sI1592
I13
sI1593
I48
sI1594
I11
sI1595
I5
sI1596
I3
sI1597
I32
sI1598
I11
sI1599
I3
sI1600
I8
sI1601
I9
sI1602
I2
sI1603
I1
sI1604
I1
sI1605
I4
sI1606
I1
sI1607
I56
sI1608
I2
sI1609
I5
sI1610
I8
sI1611
I6
sI1612
I9
sI1613
I1
sI1614
I9
sI1615
I1
sI1616
I12
sI1617
I3
sI1618
I26
sI1619
I2
sI1620
I17
sI1621
I3
sI1622
I4
sI1623
I1
sI1624
I3
sI1625
I13
sI1626
I3
sI1627
I3
sI1628
I33
sI1629
I1
sI1630
I20
sI1631
I9
sI1632
I3
sI1633
I2
sI1634
I9
sI1635
I3
sI1636
I1
sI1637
I27
sI1638
I36
sI1639
I5
sI1640
I10
sI1641
I1
sI1642
I3
sI1643
I1
sI1644
I2
sI1645
I4
sI1646
I26
sI1647
I4
sI1648
I6
sI1649
I1
sI1650
I3
sI1651
I1
sI1652
I12
sI1653
I1
sI1654
I7
sI1655
I4
sI1656
I27
sI1657
I1
sI1658
I15
sI1659
I12
sI1660
I3
sI1661
I2
sI1662
I1
sI1663
I16
sI1664
I4
sI1665
I5
sI1666
I53
sI1667
I122
sI1668
I22
sI1669
I35
sI1670
I167
sI1671
I1
sI1672
I14
sI1673
I1
sI1674
I2
sI1675
I1
sI1676
I1
sI1677
I1
sI1678
I2
sI1679
I15
sI1680
I1
sI1681
I13
sI1682
I2
sI1683
I4
sI1684
I14
sI1685
I1
sI1686
I13
sI1687
I7
sI1688
I4
sI1689
I2
sI1690
I3
sI1691
I28
sI1692
I14
sI1693
I2
sI1694
I1
sI1695
I1
sI1696
I71
sI1697
I2
sI1698
I1
sI1699
I1
sI1700
I70
sI1701
I3
sI1702
I6
sI1703
I1
sI1704
I18
sI1705
I6
sI1706
I2
sI1707
I19
sI1708
I9
sI1709
I1
sI1710
I4
sI1711
I42
sI1712
I29
sI1713
I20
sI1714
I1
sI1715
I2
sI1716
I1
sI1717
I2
sI1718
I2
sI1719
I1
sI1720
I1
sI1721
I4
sI1722
I20
sI1723
I12
sI1724
I8
sI1725
I1
sI1726
I4
sI1727
I3
sI1728
I1
sI1729
I12
sI1730
I12
sI1731
I1
sI1732
I5
sI1733
I7
sI1734
I6
sI1735
I16
sI1736
I12
sI1737
I2
sI1738
I1
sI1739
I3
sI1740
I39
sI1741
I5
sI1742
I10
sI1743
I10
sI1744
I2
sI1745
I16
sI1746
I2
sI1747
I6
sI1748
I2
sI1749
I1
sI1750
I21
sI1751
I30
sI1752
I1
sI1753
I3
sI1754
I3
sI1755
I9
sI1756
I3
sI1757
I18
sI1758
I7
sI1759
I8
sI1760
I10
sI1761
I1
sI1762
I63
sI1763
I7
sI1764
I3
sI1765
I3
sI1766
I3
sI1767
I10
sI1768
I4
sI1769
I1
sI1770
I4
sI1771
I10
sI1772
I1
sI1773
I11
sI1774
I22
sI1775
I29
sI1776
I34
sI1777
I6
sI1778
I1
sI1779
I4
sI1780
I2
sI1781
I1
sI1782
I28
sI1783
I1
sI1784
I1
sI1785
I23
sI1786
I2
sI1787
I1
sI1788
I4
sI1789
I4
sI1790
I5
sI1791
I1
sI1792
I9
sI1793
I11
sI1794
I1
sI1795
I12
sI1796
I12
sI1797
I8
sI1798
I3
sI1799
I14
sI1800
I1
sI1801
I7
sI1802
I9
sI1803
I7
sI1804
I10
sI1805
I1
sI1806
I4
sI1807
I14
sI1808
I1
sI1809
I15
sI1810
I2
sI1811
I2
sI1812
I2
sI1813
I13
sI1814
I3
sI1815
I2
sI1816
I2
sI1817
I32
sI1818
I2
sI1819
I17
sI1820
I31
sI1821
I8
sI1822
I2
sI1823
I23
sI1824
I6
sI1825
I1
sI1826
I3
sI1827
I2
sI1828
I3
sI1829
I9
sI1830
I16
sI1831
I1
sI1832
I1
sI1833
I1
sI1834
I9
sI1835
I1
sI1836
I49
sI1837
I1
sI1838
I1
sI1839
I2
sI1840
I4
sI1841
I25
sI1842
I1
sI1843
I2
sI1844
I11
sI1845
I4
sI1846
I27
sI1847
I17
sI1848
I1
sI1849
I2
sI1850
I19
sI1851
I6
sI1852
I12
sI1853
I1
sI1854
I2
sI1855
I2
sI1856
I1
sI1857
I1
sI1858
I1
sI1859
I4
sI1860
I20
sI1861
I1
sI1862
I10
sI1863
I1
sI1864
I3
sI1865
I1
sI1866
I23
sI1867
I1
sI1868
I3
sI1869
I8
sI1870
I3
sI1871
I1
sI1872
I4
sI1873
I3
sI1874
I1
sI1875
I2
sI1876
I1
sI1877
I5
sI1878
I3
sI1879
I5
sI1880
I1
sI1881
I1
sI1882
I1
sI1883
I2
sI1884
I1
sI1885
I10
sI1886
I2
sI1887
I1
sI1888
I2
sI1889
I4
sI1890
I11
sI1891
I25
sI1892
I10
sI1893
I2
sI1894
I15
sI1895
I1
sI1896
I22
sI1897
I4
sI1898
I6
sI1899
I1
sI1900
I2
sI1901
I2
sI1902
I1
sI1903
I4
sI1904
I1
sI1905
I11
sI1906
I2
sI1907
I1
sI1908
I1
sI1909
I1
sI1910
I1
sI1911
I18
sI1912
I1
sI1913
I68
sI1914
I1
sI1915
I6
sI1916
I1
sI1917
I35
sI1918
I3
sI1919
I1
sI1920
I17
sI1921
I4
sI1922
I1
sI1923
I3
sI1924
I7
sI1925
I3
sI1926
I22
sI1927
I26
sI1928
I19
sI1929
I20
sI1930
I1
sI1931
I1
sI1932
I4
sI1933
I2
sI1934
I11
sI1935
I2
sI1936
I1
sI1937
I1
sI1938
I35
sI1939
I75
sI1940
I3
sI1941
I1
sI1942
I5
sI1943
I22
sI1944
I45
sI1945
I16
sI1946
I1
sI1947
I5
sI1948
I6
sI1949
I32
sI1950
I29
sI1951
I1
sI1952
I11
sI1953
I2
sI1954
I1
sI1955
I1
sI1956
I8
sI1957
I1
sI1958
I3
sI1959
I15
sI1960
I1
sI1961
I7
sI1962
I3
sI1963
I5
sI1964
I2
sI1965
I2
sI1966
I2
sI1967
I3
sI1968
I20
sI1969
I1
sI1970
I8
sI1971
I1
sI1972
I5
sI1973
I43
sI1974
I2
sI1975
I1
sI1976
I1
sI1977
I1
sI1978
I2
sI1979
I1
sI1980
I2
sI1981
I39
sI1982
I25
sI1983
I1
sI1984
I1
sI1985
I4
sI1986
I1
sI1987
I8
sI1988
I3
sI1989
I2
sI1990
I5
sI1991
I1
sI1992
I10
sI1993
I1
sI1994
I27
sI1995
I1
sI1996
I40
sI1997
I21
sI1998
I1
sI1999
I1
sI2000
I2
sI2001
I7
sI2002
I1
sI2003
I2
sI2004
I6
sI2005
I1
sI2006
I5
sI2007
I29
sI2008
I1
sI2009
I1
sI2010
I1
sI2011
I16
sI2012
I6
sI2013
I66
sI2014
I13
sI2015
I23
sI2016
I32
sI2017
I1
sI2018
I1
sI2019
I3
sI2020
I17
sI2021
I1
sI2022
I3
sI2023
I1
sI2024
I5
sI2025
I7
sI2026
I14
sI2027
I4
sI2028
I3
sI2029
I2
sI2030
I1
sI2031
I4
sI2032
I7
sI2033
I19
sI2034
I14
sI2035
I1
sI2036
I6
sI2037
I1
sI2038
I60
sI2039
I1
sI2040
I3
sI2041
I2
sI2042
I4
sI2043
I6
sI2044
I1
sI2045
I1
sI2046
I8
sI2047
I1
sI2048
I19
sI2049
I3
sI2050
I1
sI2051
I1
sI2052
I36
sI2053
I17
sI2054
I23
sI2055
I1
sI2056
I6
sI2057
I14
sI2058
I1
sI2059
I3
sI2060
I6
sI2061
I27
sI2062
I2
sI2063
I7
sI2064
I5
sI2065
I15
sI2066
I12
sI2067
I8
sI2068
I1
sI2069
I2
sI2070
I2
sI2071
I2
sI2072
I1
sI2073
I2
sI2074
I5
sI2075
I5
sI2076
I9
sI2077
I2
sI2078
I1
sI2079
I17
sI2080
I1
sI2081
I110
sI2082
I2
sI2083
I21
sI2084
I2
sI2085
I18
sI2086
I3
sI2087
I3
sI2088
I20
sI2089
I2
sI2090
I4
sI2091
I4
sI2092
I15
sI2093
I3
sI2094
I4
sI2095
I1
sI2096
I5
sI2097
I1
sI2098
I21
sI2099
I27
sI2100
I2
sI2101
I1
sI2102
I4
sI2103
I7
sI2104
I4
sI2105
I18
sI2106
I18
sI2107
I1
sI2108
I9
sI2109
I4
sI2110
I4
sI2111
I14
sI2112
I1
sI2113
I7
sI2114
I2
sI2115
I3
sI2116
I2
sI2117
I1
sI2118
I1
sI2119
I1
sI2120
I10
sI2121
I4
sI2122
I1
sI2123
I3
sI2124
I5
sI2125
I1
sI2126
I13
sI2127
I1
sI2128
I1
sI2129
I9
sI2130
I11
sI2131
I1
sI2132
I4
sI2133
I22
sI2134
I10
sI2135
I1
sI2136
I1
sI2137
I2
sI2138
I13
sI2139
I1
sI2140
I1
sI2141
I7
sI2142
I1
sI2143
I3
sI2144
I2
sI2145
I27
sI2146
I4
sI2147
I1
sI2148
I9
sI2149
I2
sI2150
I3
sI2151
I1
sI2152
I1
sI2153
I1
sI2154
I2
sI2155
I9
sI2156
I1
sI2157
I4
sI2158
I1
sI2159
I9
sI2160
I1
sI2161
I7
sI2162
I3
sI2163
I6
sI2164
I19
sI2165
I1
sI2166
I1
sI2167
I9
sI2168
I13
sI2169
I1
sI2170
I1
sI2171
I2
sI2172
I1
sI2173
I25
sI2174
I1
sI2175
I1
sI2176
I1
sI2177
I1
sI2178
I2
sI2179
I13
sI2180
I13
sI2181
I7
sI2182
I11
sI2183
I1
sI2184
I1
sI2185
I17
sI2186
I3
sI2187
I9
sI2188
I6
sI2189
I4
sI2190
I1
sI2191
I9
sI2192
I4
sI2193
I3
sI2194
I6
sI2195
I1
sI2196
I13
sI2197
I4
sI2198
I1
sI2199
I11
sI2200
I3
sI2201
I1
sI2202
I1
sI2203
I1
sI2204
I9
sI2205
I1
sI2206
I2
sI2207
I11
sI2208
I6
sI2209
I1
sI2210
I1
sI2211
I1
sI2212
I4
sI2213
I4
sI2214
I20
sI2215
I4
sI2216
I5
sI2217
I7
sI2218
I7
sI2219
I1
sI2220
I4
sI2221
I7
sI2222
I3
sI2223
I3
sI2224
I9
sI2225
I4
sI2226
I10
sI2227
I4
sI2228
I1
sI2229
I2
sI2230
I39
sI2231
I31
sI2232
I1
sI2233
I15
sI2234
I2
sI2235
I1
sI2236
I1
sI2237
I1
sI2238
I6
sI2239
I4
sI2240
I2
sI2241
I1
sI2242
I11
sI2243
I4
sI2244
I4
sI2245
I1
sI2246
I3
sI2247
I1
sI2248
I1
sI2249
I2
sI2250
I1
sI2251
I11
sI2252
I3
sI2253
I4
sI2254
I2
sI2255
I1
sI2256
I1
sI2257
I3
sI2258
I5
sI2259
I1
sI2260
I1
sI2261
I9
sI2262
I1
sI2263
I2
sI2264
I9
sI2265
I5
sI2266
I1
sI2267
I4
sI2268
I1
sI2269
I5
sI2270
I8
sI2271
I20
sI2272
I1
sI2273
I3
sI2274
I1
sI2275
I4
sI2276
I1
sI2277
I1
sI2278
I4
sI2279
I5
sI2280
I2
sI2281
I1
sI2282
I10
sI2283
I1
sI2284
I32
sI2285
I9
sI2286
I4
sI2287
I5
sI2288
I1
sI2289
I1
sI2290
I2
sI2291
I1
sI2292
I32
sI2293
I52
sI2294
I1
sI2295
I8
sI2296
I1
sI2297
I2
sI2298
I2
sI2299
I2
sI2300
I7
sI2301
I6
sI2302
I20
sI2303
I19
sI2304
I8
sI2305
I3
sI2306
I6
sI2307
I8
sI2308
I5
sI2309
I1
sI2310
I1
sI2311
I4
sI2312
I6
sI2313
I2
sI2314
I3
sI2315
I2
sI2316
I1
sI2317
I12
sI2318
I2
sI2319
I8
sI2320
I2
sI2321
I2
sI2322
I6
sI2323
I9
sI2324
I3
sI2325
I3
sI2326
I1
sI2327
I3
sI2328
I3
sI2329
I15
sI2330
I37
sI2331
I3
sI2332
I4
sI2333
I12
sI2334
I2
sI2335
I2
sI2336
I8
sI2337
I122
sI2338
I1
sI2339
I1
sI2340
I9
sI2341
I6
sI2342
I5
sI2343
I2
sI2344
I2
sI2345
I43
sI2346
I3
sI2347
I5
sI2348
I15
sI2349
I3
sI2350
I5
sI2351
I68
sI2352
I2
sI2353
I2
sI2354
I4
sI2355
I9
sI2356
I3
sI2357
I3
sI2358
I4
sI2359
I11
sI2360
I7
sI2361
I1
sI2362
I14
sI2363
I6
sI2364
I6
sI2365
I2
sI2366
I10
sI2367
I2
sI2368
I1
sI2369
I8
sI2370
I1
sI2371
I1
sI2372
I11
sI2373
I6
sI2374
I2
sI2375
I2
sI2376
I1
sI2377
I17
sI2378
I4
sI2379
I1
sI2380
I33
sI2381
I10
sI2382
I2
sI2383
I1
sI2384
I1
sI2385
I3
sI2386
I1
sI2387
I1
sI2388
I8
sI2389
I5
sI2390
I6
sI2391
I1
sI2392
I5
sI2393
I2
sI2394
I1
sI2395
I1
sI2396
I4
sI2397
I1
sI2398
I6
sI2399
I1
sI2400
I1
sI2401
I1
sI2402
I3
sI2403
I7
sI2404
I16
sI2405
I3
sI2406
I4
sI2407
I18
sI2408
I15
sI2409
I2
sI2410
I3
sI2411
I6
sI2412
I3
sI2413
I7
sI2414
I2
sI2415
I6
sI2416
I1
sI2417
I1
sI2418
I1
sI2419
I3
sI2420
I1
sI2421
I1
sI2422
I2
sI2423
I2
sI2424
I1
sI2425
I3
sI2426
I11
sI2427
I1
sI2428
I8
sI2429
I1
sI2430
I17
sI2431
I3
sI2432
I5
sI2433
I1
sI2434
I6
sI2435
I8
sI2436
I1
sI2437
I4
sI2438
I1
sI2439
I1
sI2440
I2
sI2441
I2
sI2442
I7
sI2443
I15
sI2444
I43
sI2445
I20
sI2446
I1
sI2447
I3
sI2448
I1
sI2449
I4
sI2450
I8
sI2451
I1
sI2452
I3
sI2453
I5
sI2454
I1
sI2455
I4
sI2456
I3
sI2457
I5
sI2458
I5
sI2459
I1
sI2460
I3
sI2461
I10
sI2462
I1
sI2463
I1
sI2464
I1
sI2465
I5
sI2466
I1
sI2467
I1
sI2468
I2
sI2469
I17
sI2470
I2
sI2471
I15
sI2472
I7
sI2473
I1
sI2474
I3
sI2475
I2
sI2476
I1
sI2477
I11
sI2478
I2
sI2479
I1
sI2480
I2
sI2481
I1
sI2482
I4
sI2483
I15
sI2484
I1
sI2485
I3
sI2486
I1
sI2487
I14
sI2488
I1
sI2489
I4
sI2490
I1
sI2491
I9
sI2492
I1
sI2493
I2
sI2494
I6
sI2495
I12
sI2496
I1
sI2497
I1
sI2498
I29
sI2499
I26
sI2500
I2
sI2501
I5
sI2502
I1
sI2503
I2
sI2504
I1
sI2505
I1
sI2506
I1
sI2507
I1
sI2508
I1
sI2509
I2
sI2510
I6
sI2511
I3
sI2512
I1
sI2513
I2
sI2514
I2
sI2515
I3
sI2516
I17
sI2517
I1
sI2518
I1
sI2519
I23
sI2520
I2
sI2521
I2
sI2522
I14
sI2523
I4
sI2524
I3
sI2525
I1
sI2526
I12
sI2527
I5
sI2528
I1
sI2529
I1
sI2530
I2
sI2531
I1
sI2532
I1
sI2533
I4
sI2534
I5
sI2535
I11
sI2536
I4
sI2537
I1
sI2538
I20
sI2539
I1
sI2540
I5
sI2541
I1
sI2542
I1
sI2543
I2
sI2544
I7
sI2545
I1
sI2546
I5
sI2547
I8
sI2548
I1
sI2549
I33
sI2550
I22
sI2551
I38
sI2552
I1
sI2553
I1
sI2554
I21
sI2555
I5
sI2556
I12
sI2557
I5
sI2558
I1
sI2559
I24
sI2560
I1
sI2561
I1
sI2562
I2
sI2563
I1
sI2564
I1
sI2565
I1
sI2566
I3
sI2567
I2
sI2568
I24
sI2569
I4
sI2570
I3
sI2571
I1
sI2572
I7
sI2573
I1
sI2574
I1
sI2575
I1
sI2576
I1
sI2577
I1
sI2578
I1
sI2579
I4
sI2580
I1
sI2581
I6
sI2582
I9
sI2583
I3
sI2584
I1
sI2585
I1
sI2586
I4
sI2587
I2
sI2588
I2
sI2589
I1
sI2590
I1
sI2591
I4
sI2592
I8
sI2593
I6
sI2594
I2
sI2595
I6
sI2596
I2
sI2597
I21
sI2598
I2
sI2599
I1
sI2600
I16
sI2601
I1
sI2602
I1
sI2603
I1
sI2604
I3
sI2605
I1
sI2606
I1
sI2607
I1
sI2608
I4
sI2609
I2
sI2610
I1
sI2611
I12
sI2612
I1
sI2613
I6
sI2614
I6
sI2615
I2
sI2616
I1
sI2617
I1
sI2618
I1
sI2619
I1
sI2620
I33
sI2621
I2
sI2622
I6
sI2623
I2
sI2624
I13
sI2625
I1
sI2626
I2
sI2627
I11
sI2628
I1
sI2629
I3
sI2630
I4
sI2631
I25
sI2632
I32
sI2633
I2
sI2634
I1
sI2635
I4
sI2636
I4
sI2637
I3
sI2638
I4
sI2639
I3
sI2640
I1
sI2641
I6
sI2642
I12
sI2643
I5
sI2644
I9
sI2645
I1
sI2646
I3
sI2647
I4
sI2648
I1
sI2649
I28
sI2650
I1
sI2651
I6
sI2652
I9
sI2653
I1
sI2654
I1
sI2655
I3
sI2656
I2
sI2657
I5
sI2658
I1
sI2659
I2
sI2660
I4
sI2661
I12
sI2662
I1
sI2663
I3
sI2664
I1
sI2665
I1
sI2666
I1
sI2667
I1
sI2668
I2
sI2669
I14
sI2670
I1
sI2671
I4
sI2672
I1
sI2673
I2
sI2674
I1
sI2675
I1
sI2676
I1
sI2677
I1
sI2678
I6
sI2679
I3
sI2680
I3
sI2681
I3
sI2682
I8
sI2683
I9
sI2684
I5
sI2685
I15
sI2686
I1
sI2687
I3
sI2688
I3
sI2689
I1
sI2690
I2
sI2691
I14
sI2692
I1
sI2693
I1
sI2694
I2
sI2695
I1
sI2696
I20
sI2697
I8
sI2698
I4
sI2699
I1
sI2700
I3
sI2701
I6
sI2702
I2
sI2703
I9
sI2704
I1
sI2705
I2
sI2706
I11
sI2707
I12
sI2708
I2
sI2709
I1
sI2710
I10
sI2711
I2
sI2712
I3
sI2713
I29
sI2714
I11
sI2715
I2
sI2716
I10
sI2717
I3
sI2718
I5
sI2719
I2
sI2720
I1
sI2721
I7
sI2722
I2
sI2723
I7
sI2724
I3
sI2725
I5
sI2726
I1
sI2727
I10
sI2728
I8
sI2729
I1
sI2730
I4
sI2731
I1
sI2732
I1
sI2733
I1
sI2734
I1
sI2735
I2
sI2736
I4
sI2737
I2
sI2738
I4
sI2739
I3
sI2740
I6
sI2741
I1
sI2742
I5
sI2743
I1
sI2744
I5
sI2745
I1
sI2746
I1
sI2747
I1
sI2748
I1
sI2749
I1
sI2750
I2
sI2751
I1
sI2752
I4
sI2753
I5
sI2754
I4
sI2755
I1
sI2756
I1
sI2757
I13
sI2758
I7
sI2759
I1
sI2760
I9
sI2761
I3
sI2762
I2
sI2763
I2
sI2764
I2
sI2765
I2
sI2766
I1
sI2767
I4
sI2768
I1
sI2769
I3
sI2770
I1
sI2771
I1
sI2772
I7
sI2773
I9
sI2774
I6
sI2775
I4
sI2776
I1
sI2777
I2
sI2778
I3
sI2779
I1
sI2780
I2
sI2781
I12
sI2782
I5
sI2783
I1
sI2784
I8
sI2785
I7
sI2786
I3
sI2787
I7
sI2788
I3
sI2789
I5
sI2790
I6
sI2791
I1
sI2792
I5
sI2793
I3
sI2794
I2
sI2795
I2
sI2796
I1
sI2797
I4
sI2798
I2
sI2799
I1
sI2800
I1
sI2801
I2
sI2802
I11
sI2803
I1
sI2804
I1
sI2805
I6
sI2806
I7
sI2807
I2
sI2808
I8
sI2809
I1
sI2810
I1
sI2811
I1
sI2812
I1
sI2813
I1
sI2814
I1
sI2815
I1
sI2816
I1
sI2817
I8
sI2818
I3
sI2819
I1
sI2820
I3
sI2821
I1
sI2822
I2
sI2823
I1
sI2824
I8
sI2825
I1
sI2826
I10
sI2827
I5
sI2828
I3
sI2829
I1
sI2830
I1
sI2831
I1
sI2832
I2
sI2833
I1
sI2834
I52
sI2835
I2
sI2836
I1
sI2837
I1
sI2838
I1
sI2839
I3
sI2840
I3
sI2841
I4
sI2842
I1
sI2843
I4
sI2844
I2
sI2845
I1
sI2846
I5
sI2847
I1
sI2848
I1
sI2849
I1
sI2850
I1
sI2851
I1
sI2852
I1
sI2853
I22
sI2854
I1
sI2855
I7
sI2856
I1
sI2857
I1
sI2858
I5
sI2859
I1
sI2860
I11
sI2861
I1
sI2862
I2
sI2863
I5
sI2864
I5
sI2865
I1
sI2866
I1
sI2867
I5
sI2868
I2
sI2869
I1
sI2870
I2
sI2871
I2
sI2872
I14
sI2873
I1
sI2874
I1
sI2875
I1
sI2876
I4
sI2877
I10
sI2878
I3
sI2879
I4
sI2880
I3
sI2881
I1
sI2882
I6
sI2883
I1
sI2884
I1
sI2885
I2
sI2886
I1
sI2887
I5
sI2888
I1
sI2889
I1
sI2890
I1
sI2891
I18
sI2892
I3
sI2893
I1
sI2894
I8
sI2895
I1
sI2896
I2
sI2897
I1
sI2898
I1
sI2899
I13
sI2900
I6
sI2901
I24
sI2902
I2
sI2903
I3
sI2904
I1
sI2905
I11
sI2906
I1
sI2907
I2
sI2908
I1
sI2909
I7
sI2910
I9
sI2911
I18
sI2912
I15
sI2913
I1
sI2914
I11
sI2915
I2
sI2916
I1
sI2917
I3
sI2918
I1
sI2919
I2
sI2920
I2
sI2921
I1
sI2922
I2
sI2923
I9
sI2924
I1
sI2925
I1
sI2926
I1
sI2927
I2
sI2928
I1
sI2929
I1
sI2930
I3
sI2931
I1
sI2932
I1
sI2933
I1
sI2934
I2
sI2935
I12
sI2936
I1
sI2937
I2
sI2938
I5
sI2939
I1
sI2940
I19
sI2941
I2
sI2942
I2
sI2943
I1
sI2944
I1
sI2945
I3
sI2946
I1
sI2947
I1
sI2948
I5
sI2949
I1
sI2950
I4
sI2951
I1
sI2952
I1
sI2953
I2
sI2954
I1
sI2955
I15
sI2956
I1
sI2957
I13
sI2958
I1
sI2959
I1
sI2960
I2
sI2961
I1
sI2962
I18
sI2963
I1
sI2964
I1
sI2965
I1
sI2966
I5
sI2967
I2
sI2968
I9
sI2969
I13
sI2970
I3
sI2971
I1
sI2972
I9
sI2973
I6
sI2974
I3
sI2975
I1
sI2976
I1
sI2977
I3
sI2978
I2
sI2979
I1
sI2980
I9
sI2981
I19
sI2982
I1
sI2983
I4
sI2984
I9
sI2985
I1
sI2986
I4
sI2987
I6
sI2988
I4
sI2989
I3
sI2990
I1
sI2991
I1
sI2992
I23
sI2993
I4
sI2994
I4
sI2995
I10
sI2996
I18
sI2997
I8
sI2998
I6
sI2999
I1
sI3000
I4
sI3001
I1
sI3002
I12
sI3003
I1
sI3004
I7
sI3005
I8
sI3006
I1
sI3007
I13
sI3008
I1
sI3009
I1
sI3010
I2
sI3011
I1
sI3012
I1
sI3013
I2
sI3014
I1
sI3015
I1
sI3016
I6
sI3017
I1
sI3018
I1
sI3019
I7
sI3020
I1
sI3021
I1
sI3022
I1
sI3023
I1
sI3024
I3
sI3025
I4
sI3026
I1
sI3027
I1
sI3028
I1
sI3029
I1
sI3030
I9
sI3031
I4
sI3032
I1
sI3033
I4
sI3034
I5
sI3035
I3
sI3036
I1
sI3037
I3
sI3038
I1
sI3039
I1
sI3040
I6
sI3041
I1
sI3042
I9
sI3043
I4
sI3044
I1
sI3045
I3
sI3046
I2
sI3047
I2
sI3048
I1
sI3049
I11
sI3050
I9
sI3051
I1
sI3052
I3
sI3053
I2
sI3054
I1
sI3055
I2
sI3056
I1
sI3057
I1
sI3058
I2
sI3059
I3
sI3060
I1
sI3061
I1
sI3062
I4
sI3063
I4
sI3064
I1
sI3065
I4
sI3066
I1
sI3067
I7
sI3068
I1
sI3069
I9
sI3070
I3
sI3071
I2
sI3072
I2
sI3073
I1
sI3074
I8
sI3075
I2
sI3076
I3
sI3077
I25
sI3078
I1
sI3079
I14
sI3080
I1
sI3081
I3
sI3082
I4
sI3083
I5
sI3084
I7
sI3085
I10
sI3086
I1
sI3087
I1
sI3088
I2
sI3089
I2
sI3090
I13
sI3091
I1
sI3092
I1
sI3093
I2
sI3094
I6
sI3095
I5
sI3096
I1
sI3097
I1
sI3098
I3
sI3099
I4
sI3100
I3
sI3101
I2
sI3102
I1
sI3103
I2
sI3104
I1
sI3105
I3
sI3106
I2
sI3107
I11
sI3108
I4
sI3109
I1
sI3110
I1
sI3111
I5
sI3112
I8
sI3113
I2
sI3114
I1
sI3115
I5
sI3116
I1
sI3117
I2
sI3118
I1
sI3119
I5
sI3120
I1
sI3121
I1
sI3122
I2
sI3123
I15
sI3124
I5
sI3125
I1
sI3126
I1
sI3127
I18
sI3128
I1
sI3129
I10
sI3130
I1
sI3131
I3
sI3132
I2
sI3133
I3
sI3134
I2
sI3135
I1
sI3136
I2
sI3137
I3
sI3138
I1
sI3139
I2
sI3140
I2
sI3141
I10
sI3142
I9
sI3143
I1
sI3144
I34
sI3145
I1
sI3146
I1
sI3147
I1
sI3148
I14
sI3149
I1
sI3150
I1
sI3151
I5
sI3152
I1
sI3153
I15
sI3154
I1
sI3155
I1
sI3156
I1
sI3157
I1
sI3158
I1
sI3159
I2
sI3160
I10
sI3161
I1
sI3162
I22
sI3163
I1
sI3164
I1
sI3165
I7
sI3166
I2
sI3167
I2
sI3168
I82
sI3169
I3
sI3170
I2
sI3171
I7
sI3172
I1
sI3173
I1
sI3174
I1
sI3175
I1
sI3176
I5
sI3177
I1
sI3178
I4
sI3179
I6
sI3180
I1
sI3181
I1
sI3182
I1
sI3183
I1
sI3184
I2
sI3185
I8
sI3186
I1
sI3187
I1
sI3188
I2
sI3189
I7
sI3190
I2
sI3191
I6
sI3192
I3
sI3193
I1
sI3194
I35
sI3195
I15
sI3196
I12
sI3197
I1
sI3198
I1
sI3199
I1
sI3200
I1
sI3201
I1
sI3202
I2
sI3203
I2
sI3204
I1
sI3205
I1
sI3206
I1
sI3207
I1
sI3208
I5
sI3209
I9
sI3210
I8
sI3211
I2
sI3212
I1
sI3213
I6
sI3214
I1
sI3215
I2
sI3216
I2
sI3217
I1
sI3218
I2
sI3219
I6
sI3220
I1
sI3221
I1
sI3222
I3
sI3223
I5
sI3224
I5
sI3225
I3
sI3226
I1
sI3227
I9
sI3228
I3
sI3229
I7
sI3230
I11
sI3231
I11
sI3232
I4
sI3233
I1
sI3234
I1
sI3235
I13
sI3236
I1
sI3237
I1
sI3238
I2
sI3239
I1
sI3240
I1
sI3241
I3
sI3242
I1
sI3243
I7
sI3244
I1
sI3245
I1
sI3246
I10
sI3247
I1
sI3248
I1
sI3249
I2
sI3250
I3
sI3251
I1
sI3252
I1
sI3253
I1
sI3254
I1
sI3255
I1
sI3256
I1
sI3257
I2
sI3258
I1
sI3259
I2
sI3260
I4
sI3261
I5
sI3262
I1
sI3263
I3
sI3264
I10
sI3265
I1
sI3266
I1
sI3267
I15
sI3268
I13
sI3269
I1
sI3270
I1
sI3271
I5
sI3272
I1
sI3273
I1
sI3274
I1
sI3275
I14
sI3276
I4
sI3277
I1
sI3278
I2
sI3279
I1
sI3280
I1
sI3281
I1
sI3282
I9
sI3283
I12
sI3284
I1
sI3285
I17
sI3286
I3
sI3287
I1
sI3288
I5
sI3289
I1
sI3290
I1
sI3291
I1
sI3292
I3
sI3293
I1
sI3294
I3
sI3295
I2
sI3296
I1
sI3297
I2
sI3298
I1
sI3299
I3
sI3300
I2
sI3301
I1
sI3302
I1
sI3303
I2
sI3304
I11
sI3305
I3
sI3306
I1
sI3307
I3
sI3308
I2
sI3309
I5
sI3310
I2
sI3311
I2
sI3312
I9
sI3313
I2
sI3314
I2
sI3315
I7
sI3316
I3
sI3317
I6
sI3318
I10
sI3319
I3
sI3320
I1
sI3321
I2
sI3322
I3
sI3323
I4
sI3324
I1
sI3325
I4
sI3326
I1
sI3327
I3
sI3328
I3
sI3329
I4
sI3330
I1
sI3331
I3
sI3332
I2
sI3333
I25
sI3334
I5
sI3335
I7
sI3336
I1
sI3337
I5
sI3338
I1
sI3339
I17
sI3340
I20
sI3341
I1
sI3342
I1
sI3343
I1
sI3344
I12
sI3345
I4
sI3346
I1
sI3347
I4
sI3348
I3
sI3349
I1
sI3350
I1
sI3351
I1
sI3352
I1
sI3353
I1
sI3354
I1
sI3355
I1
sI3356
I1
sI3357
I1
sI3358
I1
sI3359
I1
sI3360
I3
sI3361
I1
sI3362
I1
sI3363
I1
sI3364
I2
sI3365
I2
sI3366
I3
sI3367
I14
sI3368
I1
sI3369
I1
sI3370
I2
sI3371
I1
sI3372
I2
sI3373
I1
sI3374
I6
sI3375
I1
sI3376
I2
sI3377
I2
sI3378
I1
sI3379
I2
sI3380
I1
sI3381
I9
sI3382
I1
sI3383
I1
sI3384
I1
sI3385
I21
sI3386
I1
sI3387
I9
sI3388
I1
sI3389
I1
sI3390
I1
sI3391
I3
sI3392
I1
sI3393
I20
sI3394
I1
sI3395
I3
sI3396
I1
sI3397
I2
sI3398
I5
sI3399
I3
sI3400
I3
sI3401
I1
sI3402
I3
sI3403
I1
sI3404
I3
sI3405
I1
sI3406
I6
sI3407
I5
sI3408
I12
sI3409
I1
sI3410
I3
sI3411
I1
sI3412
I2
sI3413
I1
sI3414
I1
sI3415
I3
sI3416
I2
sI3417
I10
sI3418
I4
sI3419
I4
sI3420
I4
sI3421
I1
sI3422
I29
sI3423
I1
sI3424
I2
sI3425
I1
sI3426
I3
sI3427
I3
sI3428
I1
sI3429
I1
sI3430
I1
sI3431
I1
sI3432
I1
sI3433
I2
sI3434
I1
sI3435
I2
sI3436
I2
sI3437
I1
sI3438
I2
sI3439
I3
sI3440
I1
sI3441
I1
sI3442
I6
sI3443
I1
sI3444
I2
sI3445
I10
sI3446
I2
sI3447
I1
sI3448
I1
sI3449
I1
sI3450
I2
sI3451
I1
sI3452
I1
sI3453
I5
sI3454
I3
sI3455
I4
sI3456
I1
sI3457
I4
sI3458
I5
sI3459
I1
sI3460
I1
sI3461
I3
sI3462
I1
sI3463
I15
sI3464
I1
sI3465
I3
sI3466
I3
sI3467
I1
sI3468
I1
sI3469
I2
sI3470
I1
sI3471
I3
sI3472
I1
sI3473
I1
sI3474
I1
sI3475
I5
sI3476
I3
sI3477
I1
sI3478
I2
sI3479
I1
sI3480
I2
sI3481
I1
sI3482
I1
sI3483
I1
sI3484
I1
sI3485
I1
sI3486
I7
sI3487
I1
sI3488
I27
sI3489
I2
sI3490
I1
sI3491
I9
sI3492
I1
sI3493
I2
sI3494
I2
sI3495
I1
sI3496
I1
sI3497
I3
sI3498
I1
sI3499
I1
sI3500
I12
sI3501
I4
sI3502
I2
sI3503
I3
sI3504
I3
sI3505
I1
sI3506
I1
sI3507
I3
sI3508
I1
sI3509
I1
sI3510
I7
sI3511
I1
sI3512
I1
sI3513
I2
sI3514
I4
sI3515
I1
sI3516
I2
sI3517
I6
sI3518
I1
sI3519
I3
sI3520
I1
sI3521
I5
sI3522
I1
sI3523
I1
sI3524
I2
sI3525
I6
sI3526
I1
sI3527
I3
sI3528
I2
sI3529
I14
sI3530
I1
sI3531
I1
sI3532
I9
sI3533
I5
sI3534
I3
sI3535
I4
sI3536
I1
sI3537
I1
sI3538
I1
sI3539
I1
sI3540
I8
sI3541
I1
sI3542
I1
sI3543
I1
sI3544
I1
sI3545
I1
sI3546
I9
sI3547
I1
sI3548
I1
sI3549
I1
sI3550
I1
sI3551
I4
sI3552
I19
sI3553
I7
sI3554
I4
sI3555
I1
sI3556
I1
sI3557
I1
sI3558
I1
sI3559
I1
sI3560
I1
sI3561
I1
sI3562
I3
sI3563
I1
sI3564
I2
sI3565
I4
sI3566
I3
sI3567
I1
sI3568
I3
sI3569
I4
sI3570
I14
sI3571
I4
sI3572
I1
sI3573
I1
sI3574
I2
sI3575
I1
sI3576
I2
sI3577
I1
sI3578
I1
sI3579
I1
sI3580
I1
sI3581
I1
sI3582
I1
sI3583
I1
sI3584
I2
sI3585
I1
sI3586
I1
sI3587
I1
sI3588
I2
sI3589
I6
sI3590
I1
sI3591
I4
sI3592
I4
sI3593
I3
sI3594
I2
sI3595
I1
sI3596
I1
sI3597
I2
sI3598
I1
sI3599
I1
sI3600
I1
sI3601
I1
sI3602
I1
sI3603
I1
sI3604
I1
sI3605
I1
sI3606
I1
sI3607
I2
sI3608
I2
sI3609
I1
sI3610
I1
sI3611
I1
sI3612
I4
sI3613
I1
sI3614
I7
sI3615
I1
sI3616
I1
sI3617
I1
sI3618
I9
sI3619
I5
sI3620
I1
sI3621
I1
sI3622
I1
sI3623
I2
sI3624
I2
sI3625
I3
sI3626
I4
sI3627
I13
sI3628
I5
sI3629
I2
sI3630
I1
sI3631
I21
sI3632
I2
sI3633
I1
sI3634
I3
sI3635
I2
sI3636
I3
sI3637
I1
sI3638
I3
sI3639
I3
sI3640
I1
sI3641
I7
sI3642
I1
sI3643
I1
sI3644
I1
sI3645
I1
sI3646
I1
sI3647
I1
sI3648
I2
sI3649
I2
sI3650
I1
sI3651
I4
sI3652
I1
sI3653
I2
sI3654
I1
sI3655
I1
sI3656
I1
sI3657
I2
sI3658
I1
sI3659
I3
sI3660
I13
sI3661
I2
sI3662
I8
sI3663
I2
sI3664
I2
sI3665
I1
sI3666
I1
sI3667
I1
sI3668
I1
sI3669
I9
sI3670
I1
sI3671
I1
sI3672
I1
sI3673
I7
sI3674
I3
sI3675
I1
sI3676
I1
sI3677
I1
sI3678
I1
sI3679
I7
sI3680
I1
sI3681
I1
sI3682
I2
sI3683
I2
sI3684
I1
sI3685
I2
sI3686
I1
sI3687
I1
sI3688
I1
sI3689
I1
sI3690
I1
sI3691
I10
sI3692
I2
sI3693
I1
sI3694
I4
sI3695
I1
sI3696
I2
sI3697
I1
sI3698
I2
sI3699
I1
sI3700
I5
sI3701
I2
sI3702
I1
sI3703
I1
sI3704
I2
sI3705
I1
sI3706
I5
sI3707
I2
sI3708
I1
sI3709
I4
sI3710
I6
sI3711
I2
sI3712
I2
sI3713
I1
sI3714
I1
sI3715
I2
sI3716
I14
sI3717
I2
sI3718
I7
sI3719
I1
sI3720
I2
sI3721
I1
sI3722
I7
sI3723
I1
sI3724
I2
sI3725
I3
sI3726
I1
sI3727
I7
sI3728
I3
sI3729
I1
sI3730
I2
sI3731
I1
sI3732
I3
sI3733
I2
sI3734
I1
sI3735
I9
sI3736
I1
sI3737
I1
sI3738
I1
sI3739
I3
sI3740
I8
sI3741
I1
sI3742
I2
sI3743
I2
sI3744
I3
sI3745
I2
sI3746
I1
sI3747
I1
sI3748
I1
sI3749
I1
sI3750
I2
sI3751
I1
sI3752
I3
sI3753
I2
sI3754
I1
sI3755
I5
sI3756
I1
sI3757
I2
sI3758
I6
sI3759
I1
sI3760
I1
sI3761
I1
sI3762
I2
sI3763
I4
sI3764
I1
sI3765
I1
sI3766
I1
sI3767
I2
sI3768
I1
sI3769
I31
sI3770
I2
sI3771
I1
sI3772
I1
sI3773
I9
sI3774
I1
sI3775
I1
sI3776
I1
sI3777
I1
sI3778
I1
sI3779
I2
sI3780
I1
sI3781
I1
sI3782
I1
sI3783
I1
sI3784
I1
sI3785
I13
sI3786
I1
sI3787
I2
sI3788
I9
sI3789
I1
sI3790
I1
sI3791
I1
sI3792
I1
sI3793
I6
sI3794
I1
sI3795
I1
sI3796
I3
sI3797
I5
sI3798
I2
sI3799
I1
sI3800
I1
sI3801
I12
sI3802
I1
sI3803
I1
sI3804
I1
sI3805
I2
sI3806
I3
sI3807
I2
sI3808
I1
sI3809
I2
sI3810
I1
sI3811
I1
sI3812
I2
sI3813
I1
sI3814
I1
sI3815
I8
sI3816
I1
sI3817
I1
sI3818
I9
sI3819
I1
sI3820
I4
sI3821
I1
sI3822
I5
sI3823
I2
sI3824
I1
sI3825
I1
sI3826
I1
sI3827
I1
sI3828
I4
sI3829
I1
sI3830
I2
sI3831
I4
sI3832
I3
sI3833
I1
sI3834
I1
sI3835
I1
sI3836
I16
sI3837
I1
sI3838
I2
sI3839
I14
sI3840
I2
sI3841
I3
sI3842
I1
sI3843
I1
sI3844
I1
sI3845
I1
sI3846
I1
sI3847
I3
sI3848
I1
sI3849
I1
sI3850
I1
sI3851
I1
sI3852
I3
sI3853
I1
sI3854
I1
sI3855
I2
sI3856
I1
sI3857
I7
sI3858
I1
sI3859
I2
sI3860
I8
sI3861
I3
sI3862
I2
sI3863
I1
sI3864
I5
sI3865
I1
sI3866
I5
sI3867
I2
sI3868
I1
sI3869
I11
sI3870
I3
sI3871
I3
sI3872
I3
sI3873
I1
sI3874
I9
sI3875
I1
sI3876
I1
sI3877
I2
sI3878
I2
sI3879
I3
sI3880
I3
sI3881
I1
sI3882
I1
sI3883
I6
sI3884
I4
sI3885
I1
sI3886
I3
sI3887
I4
sI3888
I2
sI3889
I1
sI3890
I1
sI3891
I1
sI3892
I2
sI3893
I3
sI3894
I1
sI3895
I1
sI3896
I3
sI3897
I7
sI3898
I5
sI3899
I2
sI3900
I2
sI3901
I2
sI3902
I1
sI3903
I1
sI3904
I5
sI3905
I22
sI3906
I6
sI3907
I4
sI3908
I5
sI3909
I1
sI3910
I2
sI3911
I1
sI3912
I1
sI3913
I1
sI3914
I2
sI3915
I1
sI3916
I11
sI3917
I1
sI3918
I1
sI3919
I3
sI3920
I6
sI3921
I1
sI3922
I2
sI3923
I2
sI3924
I2
sI3925
I1
sI3926
I1
sI3927
I1
sI3928
I2
sI3929
I1
sI3930
I1
sI3931
I1
sI3932
I1
sI3933
I1
sI3934
I2
sI3935
I2
sI3936
I1
sI3937
I3
sI3938
I1
sI3939
I1
sI3940
I1
sI3941
I2
sI3942
I1
sI3943
I1
sI3944
I1
sI3945
I1
sI3946
I2
sI3947
I5
sI3948
I1
sI3949
I3
sI3950
I2
sI3951
I2
sI3952
I2
sI3953
I1
sI3954
I1
sI3955
I1
sI3956
I8
sI3957
I9
sI3958
I1
sI3959
I5
sI3960
I1
sI3961
I4
sI3962
I2
sI3963
I5
sI3964
I1
sI3965
I3
sI3966
I1
sI3967
I3
sI3968
I1
sI3969
I2
sI3970
I3
sI3971
I1
sI3972
I13
sI3973
I18
sI3974
I2
sI3975
I1
sI3976
I3
sI3977
I5
sI3978
I1
sI3979
I1
sI3980
I1
sI3981
I4
sI3982
I2
sI3983
I2
sI3984
I9
sI3985
I1
sI3986
I2
sI3987
I1
sI3988
I10
sI3989
I6
sI3990
I2
sI3991
I1
sI3992
I7
sI3993
I1
sI3994
I2
sI3995
I1
sI3996
I5
sI3997
I2
sI3998
I1
sI3999
I1
sI4000
I1
sI4001
I1
sI4002
I2
sI4003
I2
sI4004
I2
sI4005
I1
sI4006
I1
sI4007
I2
sI4008
I1
sI4009
I3
sI4010
I7
sI4011
I1
sI4012
I1
sI4013
I8
sI4014
I7
sI4015
I3
sI4016
I6
sI4017
I1
sI4018
I3
sI4019
I3
sI4020
I5
sI4021
I2
sI4022
I2
sI4023
I2
sI4024
I3
sI4025
I1
sI4026
I1
sI4027
I4
sI4028
I1
sI4029
I2
sI4030
I14
sI4031
I3
sI4032
I2
sI4033
I1
sI4034
I2
sI4035
I1
sI4036
I3
sI4037
I4
sI4038
I2
sI4039
I10
sI4040
I1
sI4041
I1
sI4042
I5
sI4043
I4
sI4044
I2
sI4045
I3
sI4046
I1
sI4047
I1
sI4048
I2
sI4049
I3
sI4050
I12
sI4051
I1
sI4052
I3
sI4053
I1
sI4054
I2
sI4055
I1
sI4056
I1
sI4057
I1
sI4058
I3
sI4059
I1
sI4060
I1
sI4061
I1
sI4062
I2
sI4063
I3
sI4064
I1
sI4065
I4
sI4066
I1
sI4067
I5
sI4068
I6
sI4069
I2
sI4070
I1
sI4071
I1
sI4072
I1
sI4073
I1
sI4074
I4
sI4075
I4
sI4076
I1
sI4077
I1
sI4078
I3
sI4079
I3
sI4080
I1
sI4081
I2
sI4082
I1
sI4083
I4
sI4084
I5
sI4085
I1
sI4086
I2
sI4087
I2
sI4088
I1
sI4089
I5
sI4090
I1
sI4091
I6
sI4092
I1
sI4093
I1
sI4094
I6
sI4095
I1
sI4096
I1
sI4097
I2
sI4098
I2
sI4099
I1
sI4100
I2
sI4101
I1
sI4102
I1
sI4103
I6
sI4104
I3
sI4105
I1
sI4106
I1
sI4107
I6
sI4108
I1
sI4109
I1
sI4110
I1
sI4111
I1
sI4112
I2
sI4113
I1
sI4114
I1
sI4115
I6
sI4116
I2
sI4117
I1
sI4118
I1
sI4119
I1
sI4120
I8
sI4121
I4
sI4122
I1
sI4123
I1
sI4124
I3
sI4125
I3
sI4126
I2
sI4127
I1
sI4128
I4
sI4129
I1
sI4130
I8
sI4131
I5
sI4132
I5
sI4133
I1
sI4134
I7
sI4135
I1
sI4136
I1
sI4137
I1
sI4138
I1
sI4139
I3
sI4140
I3
sI4141
I1
sI4142
I1
sI4143
I4
sI4144
I1
sI4145
I2
sI4146
I1
sI4147
I8
sI4148
I1
sI4149
I1
sI4150
I8
sI4151
I4
sI4152
I6
sI4153
I2
sI4154
I1
sI4155
I1
sI4156
I2
sI4157
I4
sI4158
I4
sI4159
I1
sI4160
I1
sI4161
I1
sI4162
I2
sI4163
I2
sI4164
I2
sI4165
I1
sI4166
I2
sI4167
I1
sI4168
I3
sI4169
I5
sI4170
I3
sI4171
I10
sI4172
I2
sI4173
I1
sI4174
I2
sI4175
I1
sI4176
I3
sI4177
I4
sI4178
I1
sI4179
I1
sI4180
I1
sI4181
I1
sI4182
I1
sI4183
I1
sI4184
I16
sI4185
I1
sI4186
I1
sI4187
I1
sI4188
I1
sI4189
I1
sI4190
I3
sI4191
I1
sI4192
I1
sI4193
I2
sI4194
I1
sI4195
I3
sI4196
I1
sI4197
I1
sI4198
I1
sI4199
I2
sI4200
I1
sI4201
I2
sI4202
I1
sI4203
I1
sI4204
I6
sI4205
I1
sI4206
I1
sI4207
I1
sI4208
I1
sI4209
I2
sI4210
I3
sI4211
I1
sI4212
I5
sI4213
I2
sI4214
I2
sI4215
I5
sI4216
I2
sI4217
I6
sI4218
I4
sI4219
I3
sI4220
I1
sI4221
I1
sI4222
I3
sI4223
I2
sI4224
I5
sI4225
I1
sI4226
I1
sI4227
I2
sI4228
I1
sI4229
I3
sI4230
I6
sI4231
I1
sI4232
I1
sI4233
I5
sI4234
I1
sI4235
I2
sI4236
I1
sI4237
I1
sI4238
I1
sI4239
I1
sI4240
I1
sI4241
I1
sI4242
I2
sI4243
I1
sI4244
I2
sI4245
I3
sI4246
I2
sI4247
I3
sI4248
I19
sI4249
I1
sI4250
I3
sI4251
I11
sI4252
I1
sI4253
I3
sI4254
I1
sI4255
I1
sI4256
I1
sI4257
I1
sI4258
I3
sI4259
I1
sI4260
I1
sI4261
I1
sI4262
I1
sI4263
I1
sI4264
I2
sI4265
I1
sI4266
I1
sI4267
I1
sI4268
I2
sI4269
I1
sI4270
I2
sI4271
I1
sI4272
I1
sI4273
I2
sI4274
I1
sI4275
I1
sI4276
I1
sI4277
I2
sI4278
I7
sI4279
I1
sI4280
I2
sI4281
I12
sI4282
I1
sI4283
I1
sI4284
I1
sI4285
I5
sI4286
I2
sI4287
I1
sI4288
I1
sI4289
I6
sI4290
I2
sI4291
I3
sI4292
I1
sI4293
I3
sI4294
I3
sI4295
I2
sI4296
I1
sI4297
I1
sI4298
I2
sI4299
I1
sI4300
I8
sI4301
I3
sI4302
I1
sI4303
I3
sI4304
I1
sI4305
I1
sI4306
I1
sI4307
I4
sI4308
I8
sI4309
I3
sI4310
I1
sI4311
I1
sI4312
I2
sI4313
I1
sI4314
I1
sI4315
I2
sI4316
I8
sI4317
I2
sI4318
I1
sI4319
I1
sI4320
I1
sI4321
I1
sI4322
I4
sI4323
I1
sI4324
I1
sI4325
I1
sI4326
I5
sI4327
I1
sI4328
I3
sI4329
I1
sI4330
I5
sI4331
I1
sI4332
I2
sI4333
I3
sI4334
I1
sI4335
I3
sI4336
I1
sI4337
I1
sI4338
I5
sI4339
I1
sI4340
I3
sI4341
I3
sI4342
I5
sI4343
I1
sI4344
I2
sI4345
I9
sI4346
I1
sI4347
I2
sI4348
I1
sI4349
I1
sI4350
I1
sI4351
I2
sI4352
I4
sI4353
I1
sI4354
I2
sI4355
I3
sI4356
I3
sI4357
I1
sI4358
I1
sI4359
I3
sI4360
I5
sI4361
I1
sI4362
I4
sI4363
I1
sI4364
I1
sI4365
I1
sI4366
I1
sI4367
I1
sI4368
I1
sI4369
I1
sI4370
I1
sI4371
I1
sI4372
I1
sI4373
I3
sI4374
I1
sI4375
I1
sI4376
I2
sI4377
I1
sI4378
I1
sI4379
I1
sI4380
I1
sI4381
I1
sI4382
I3
sI4383
I2
sI4384
I1
sI4385
I1
sI4386
I1
sI4387
I1
sI4388
I1
sI4389
I1
sI4390
I1
sI4391
I1
sI4392
I1
sI4393
I1
sI4394
I1
sI4395
I1
sI4396
I3
sI4397
I4
sI4398
I1
sI4399
I1
sI4400
I1
sI4401
I5
sI4402
I1
sI4403
I1
sI4404
I1
sI4405
I4
sI4406
I1
sI4407
I4
sI4408
I3
sI4409
I4
sI4410
I2
sI4411
I1
sI4412
I1
sI4413
I2
sI4414
I1
sI4415
I1
sI4416
I1
sI4417
I1
sI4418
I1
sI4419
I1
sI4420
I7
sI4421
I1
sI4422
I1
sI4423
I1
sI4424
I6
sI4425
I1
sI4426
I2
sI4427
I1
sI4428
I2
sI4429
I1
sI4430
I1
sI4431
I1
sI4432
I4
sI4433
I1
sI4434
I1
sI4435
I11
sI4436
I1
sI4437
I7
sI4438
I2
sI4439
I1
sI4440
I3
sI4441
I2
sI4442
I3
sI4443
I2
sI4444
I1
sI4445
I4
sI4446
I1
sI4447
I1
sI4448
I4
sI4449
I6
sI4450
I6
sI4451
I2
sI4452
I3
sI4453
I3
sI4454
I2
sI4455
I3
sI4456
I2
sI4457
I1
sI4458
I3
sI4459
I3
sI4460
I1
sI4461
I2
sI4462
I2
sI4463
I1
sI4464
I2
sI4465
I1
sI4466
I1
sI4467
I1
sI4468
I1
sI4469
I2
sI4470
I1
sI4471
I1
sI4472
I2
sI4473
I3
sI4474
I1
sI4475
I2
sI4476
I2
sI4477
I1
sI4478
I1
sI4479
I1
sI4480
I2
sI4481
I2
sI4482
I4
sI4483
I1
sI4484
I2
sI4485
I1
sI4486
I5
sI4487
I2
sI4488
I1
sI4489
I2
sI4490
I5
sI4491
I3
sI4492
I10
sI4493
I2
sI4494
I12
sI4495
I2
sI4496
I4
sI4497
I1
sI4498
I14
sI4499
I1
sI4500
I1
sI4501
I2
sI4502
I3
sI4503
I1
sI4504
I2
sI4505
I1
sI4506
I2
sI4507
I2
sI4508
I4
sI4509
I1
sI4510
I3
sI4511
I6
sI4512
I1
sI4513
I2
sI4514
I1
sI4515
I1
sI4516
I2
sI4517
I1
sI4518
I1
sI4519
I3
sI4520
I1
sI4521
I1
sI4522
I1
sI4523
I1
sI4524
I1
sI4525
I3
sI4526
I1
sI4527
I3
sI4528
I1
sI4529
I1
sI4530
I4
sI4531
I5
sI4532
I1
sI4533
I1
sI4534
I1
sI4535
I6
sI4536
I2
sI4537
I1
sI4538
I4
sI4539
I1
sI4540
I1
sI4541
I1
sI4542
I1
sI4543
I1
sI4544
I3
sI4545
I3
sI4546
I2
sI4547
I2
sI4548
I10
sI4549
I1
sI4550
I6
sI4551
I5
sI4552
I1
sI4553
I1
sI4554
I1
sI4555
I1
sI4556
I3
sI4557
I1
sI4558
I1
sI4559
I2
sI4560
I1
sI4561
I5
sI4562
I1
sI4563
I1
sI4564
I1
sI4565
I1
sI4566
I1
sI4567
I1
sI4568
I27
sI4569
I1
sI4570
I1
sI4571
I1
sI4572
I1
sI4573
I1
sI4574
I2
sI4575
I1
sI4576
I1
sI4577
I1
sI4578
I2
sI4579
I1
sI4580
I6
sI4581
I12
sI4582
I1
sI4583
I1
sI4584
I1
sI4585
I1
sI4586
I2
sI4587
I2
sI4588
I2
sI4589
I3
sI4590
I1
sI4591
I1
sI4592
I1
sI4593
I5
sI4594
I6
sI4595
I1
sI4596
I2
sI4597
I4
sI4598
I4
sI4599
I1
sI4600
I1
sI4601
I1
sI4602
I1
sI4603
I1
sI4604
I1
sI4605
I1
sI4606
I1
sI4607
I1
sI4608
I2
sI4609
I1
sI4610
I2
sI4611
I2
sI4612
I4
sI4613
I1
sI4614
I1
sI4615
I1
sI4616
I7
sI4617
I1
sI4618
I1
sI4619
I2
sI4620
I1
sI4621
I1
sI4622
I3
sI4623
I1
sI4624
I4
sI4625
I1
sI4626
I2
sI4627
I1
sI4628
I4
sI4629
I1
sI4630
I1
sI4631
I1
sI4632
I1
sI4633
I1
sI4634
I2
sI4635
I1
sI4636
I1
sI4637
I1
sI4638
I2
sI4639
I2
sI4640
I10
sI4641
I1
sI4642
I1
sI4643
I2
sI4644
I1
sI4645
I1
sI4646
I1
sI4647
I1
sI4648
I3
sI4649
I1
sI4650
I2
sI4651
I5
sI4652
I5
sI4653
I3
sI4654
I2
sI4655
I7
sI4656
I1
sI4657
I9
sI4658
I1
sI4659
I1
sI4660
I1
sI4661
I1
sI4662
I1
sI4663
I3
sI4664
I1
sI4665
I2
sI4666
I1
sI4667
I2
sI4668
I1
sI4669
I1
sI4670
I1
sI4671
I1
sI4672
I1
sI4673
I3
sI4674
I3
sI4675
I6
sI4676
I3
sI4677
I1
sI4678
I4
sI4679
I2
sI4680
I1
sI4681
I2
sI4682
I1
sI4683
I2
sI4684
I1
sI4685
I3
sI4686
I1
sI4687
I1
sI4688
I1
sI4689
I3
sI4690
I1
sI4691
I3
sI4692
I4
sI4693
I2
sI4694
I1
sI4695
I3
sI4696
I1
sI4697
I1
sI4698
I1
sI4699
I1
sI4700
I2
sI4701
I2
sI4702
I1
sI4703
I1
sI4704
I5
sI4705
I2
sI4706
I1
sI4707
I1
sI4708
I3
sI4709
I3
sI4710
I1
sI4711
I3
sI4712
I5
sI4713
I1
sI4714
I1
sI4715
I1
sI4716
I1
sI4717
I1
sI4718
I1
sI4719
I1
sI4720
I1
sI4721
I2
sI4722
I6
sI4723
I9
sI4724
I1
sI4725
I1
sI4726
I1
sI4727
I3
sI4728
I1
sI4729
I1
sI4730
I1
sI4731
I1
sI4732
I1
sI4733
I4
sI4734
I3
sI4735
I1
sI4736
I1
sI4737
I2
sI4738
I1
sI4739
I1
sI4740
I2
sI4741
I7
sI4742
I6
sI4743
I3
sI4744
I2
sI4745
I3
sI4746
I1
sI4747
I2
sI4748
I1
sI4749
I3
sI4750
I2
sI4751
I1
sI4752
I2
sI4753
I1
sI4754
I1
sI4755
I1
sI4756
I1
sI4757
I1
sI4758
I6
sI4759
I1
sI4760
I2
sI4761
I1
sI4762
I1
sI4763
I2
sI4764
I1
sI4765
I2
sI4766
I7
sI4767
I1
sI4768
I5
sI4769
I2
sI4770
I3
sI4771
I2
sI4772
I2
sI4773
I1
sI4774
I1
sI4775
I3
sI4776
I1
sI4777
I1
sI4778
I2
sI4779
I2
sI4780
I2
sI4781
I3
sI4782
I1
sI4783
I1
sI4784
I6
sI4785
I1
sI4786
I1
sI4787
I2
sI4788
I1
sI4789
I1
sI4790
I1
sI4791
I1
sI4792
I2
sI4793
I1
sI4794
I1
sI4795
I1
sI4796
I1
sI4797
I1
sI4798
I1
sI4799
I1
sI4800
I1
sI4801
I2
sI4802
I1
sI4803
I1
sI4804
I1
sI4805
I6
sI4806
I7
sI4807
I4
sI4808
I1
sI4809
I1
sI4810
I1
sI4811
I1
sI4812
I2
sI4813
I1
sI4814
I1
sI4815
I1
sI4816
I1
sI4817
I2
sI4818
I1
sI4819
I1
sI4820
I3
sI4821
I1
sI4822
I3
sI4823
I3
sI4824
I1
sI4825
I1
sI4826
I1
sI4827
I1
sI4828
I1
sI4829
I2
sI4830
I1
sI4831
I1
sI4832
I4
sI4833
I5
sI4834
I1
sI4835
I2
sI4836
I3
sI4837
I1
sI4838
I1
sI4839
I2
sI4840
I1
sI4841
I1
sI4842
I2
sI4843
I2
sI4844
I1
sI4845
I1
sI4846
I4
sI4847
I2
sI4848
I1
sI4849
I1
sI4850
I1
sI4851
I1
sI4852
I2
sI4853
I2
sI4854
I1
sI4855
I1
sI4856
I4
sI4857
I1
sI4858
I1
sI4859
I1
sI4860
I2
sI4861
I2
sI4862
I1
sI4863
I2
sI4864
I2
sI4865
I1
sI4866
I1
sI4867
I5
sI4868
I1
sI4869
I1
sI4870
I1
sI4871
I3
sI4872
I1
sI4873
I1
sI4874
I2
sI4875
I1
sI4876
I1
sI4877
I1
sI4878
I1
sI4879
I1
sI4880
I1
sI4881
I1
sI4882
I1
sI4883
I1
sI4884
I2
sI4885
I3
sI4886
I1
sI4887
I3
sI4888
I1
sI4889
I3
sI4890
I7
sI4891
I9
sI4892
I1
sI4893
I1
sI4894
I14
sI4895
I1
sI4896
I1
sI4897
I1
sI4898
I1
sI4899
I9
sI4900
I1
sI4901
I1
sI4902
I2
sI4903
I1
sI4904
I10
sI4905
I1
sI4906
I1
sI4907
I3
sI4908
I2
sI4909
I1
sI4910
I1
sI4911
I1
sI4912
I4
sI4913
I4
sI4914
I1
sI4915
I1
sI4916
I10
sI4917
I1
sI4918
I1
sI4919
I1
sI4920
I10
sI4921
I1
sI4922
I7
sI4923
I2
sI4924
I2
sI4925
I1
sI4926
I4
sI4927
I1
sI4928
I4
sI4929
I1
sI4930
I1
sI4931
I1
sI4932
I5
sI4933
I1
sI4934
I5
sI4935
I1
sI4936
I1
sI4937
I1
sI4938
I1
sI4939
I4
sI4940
I1
sI4941
I1
sI4942
I1
sI4943
I3
sI4944
I1
sI4945
I1
sI4946
I2
sI4947
I1
sI4948
I1
sI4949
I2
sI4950
I1
sI4951
I5
sI4952
I2
sI4953
I1
sI4954
I1
sI4955
I1
sI4956
I2
sI4957
I1
sI4958
I2
sI4959
I1
sI4960
I7
sI4961
I1
sI4962
I6
sI4963
I1
sI4964
I4
sI4965
I1
sI4966
I1
sI4967
I1
sI4968
I2
sI4969
I1
sI4970
I2
sI4971
I1
sI4972
I1
sI4973
I1
sI4974
I1
sI4975
I12
sI4976
I2
sI4977
I1
sI4978
I3
sI4979
I1
sI4980
I5
sI4981
I1
sI4982
I1
sI4983
I1
sI4984
I1
sI4985
I1
sI4986
I1
sI4987
I1
sI4988
I7
sI4989
I1
sI4990
I1
sI4991
I2
sI4992
I1
sI4993
I1
sI4994
I1
sI4995
I5
sI4996
I1
sI4997
I1
sI4998
I2
sI4999
I1
sI5000
I1
sI5001
I2
sI5002
I1
sI5003
I1
sI5004
I3
sI5005
I2
sI5006
I1
sI5007
I1
sI5008
I1
sI5009
I1
sI5010
I1
sI5011
I3
sI5012
I1
sI5013
I3
sI5014
I1
sI5015
I1
sI5016
I3
sI5017
I3
sI5018
I1
sI5019
I1
sI5020
I2
sI5021
I1
sI5022
I1
sI5023
I6
sI5024
I2
sI5025
I2
sI5026
I4
sI5027
I2
sI5028
I1
sI5029
I1
sI5030
I1
sI5031
I5
sI5032
I1
sI5033
I1
sI5034
I1
sI5035
I3
sI5036
I1
sI5037
I1
sI5038
I1
sI5039
I2
sI5040
I1
sI5041
I1
sI5042
I1
sI5043
I4
sI5044
I1
sI5045
I1
sI5046
I3
sI5047
I2
sI5048
I1
sI5049
I2
sI5050
I1
sI5051
I3
sI5052
I2
sI5053
I1
sI5054
I1
sI5055
I6
sI5056
I1
sI5057
I1
sI5058
I2
sI5059
I1
sI5060
I4
sI5061
I1
sI5062
I1
sI5063
I1
sI5064
I1
sI5065
I1
sI5066
I1
sI5067
I1
sI5068
I1
sI5069
I6
sI5070
I1
sI5071
I1
sI5072
I3
sI5073
I1
sI5074
I3
sI5075
I1
sI5076
I2
sI5077
I2
sI5078
I1
sI5079
I1
sI5080
I1
sI5081
I1
sI5082
I1
sI5083
I1
sI5084
I2
sI5085
I1
sI5086
I2
sI5087
I5
sI5088
I1
sI5089
I1
sI5090
I1
sI5091
I4
sI5092
I1
sI5093
I1
sI5094
I1
sI5095
I3
sI5096
I2
sI5097
I1
sI5098
I2
sI5099
I1
sI5100
I1
sI5101
I11
sI5102
I1
sI5103
I2
sI5104
I1
sI5105
I13
sI5106
I2
sI5107
I1
sI5108
I3
sI5109
I2
sI5110
I1
sI5111
I2
sI5112
I1
sI5113
I2
sI5114
I1
sI5115
I3
sI5116
I1
sI5117
I2
sI5118
I1
sI5119
I3
sI5120
I4
sI5121
I5
sI5122
I1
sI5123
I1
sI5124
I1
sI5125
I5
sI5126
I1
sI5127
I4
sI5128
I2
sI5129
I1
sI5130
I1
sI5131
I1
sI5132
I1
sI5133
I2
sI5134
I1
sI5135
I1
sI5136
I1
sI5137
I1
sI5138
I1
sI5139
I1
sI5140
I1
sI5141
I1
sI5142
I1
sI5143
I1
sI5144
I1
sI5145
I1
sI5146
I3
sI5147
I1
sI5148
I1
sI5149
I2
sI5150
I1
sI5151
I1
sI5152
I1
sI5153
I1
sI5154
I1
sI5155
I1
sI5156
I1
sI5157
I1
sI5158
I1
sI5159
I1
sI5160
I1
sI5161
I2
sI5162
I2
sI5163
I1
sI5164
I2
sI5165
I2
sI5166
I12
sI5167
I1
sI5168
I2
sI5169
I1
sI5170
I3
sI5171
I6
sI5172
I1
sI5173
I1
sI5174
I1
sI5175
I1
sI5176
I1
sI5177
I1
sI5178
I1
sI5179
I1
sI5180
I1
sI5181
I2
sI5182
I1
sI5183
I1
sI5184
I1
sI5185
I1
sI5186
I12
sI5187
I1
sI5188
I2
sI5189
I1
sI5190
I1
sI5191
I2
sI5192
I1
sI5193
I1
sI5194
I1
sI5195
I1
sI5196
I1
sI5197
I1
sI5198
I3
sI5199
I16
sI5200
I1
sI5201
I1
sI5202
I5
sI5203
I1
sI5204
I3
sI5205
I1
sI5206
I2
sI5207
I6
sI5208
I1
sI5209
I1
sI5210
I1
sI5211
I1
sI5212
I1
sI5213
I1
sI5214
I1
sI5215
I2
sI5216
I2
sI5217
I8
sI5218
I1
sI5219
I2
sI5220
I2
sI5221
I1
sI5222
I3
sI5223
I3
sI5224
I1
sI5225
I3
sI5226
I1
sI5227
I1
sI5228
I1
sI5229
I1
sI5230
I2
sI5231
I1
sI5232
I5
sI5233
I2
sI5234
I2
sI5235
I1
sI5236
I2
sI5237
I1
sI5238
I1
sI5239
I1
sI5240
I1
sI5241
I5
sI5242
I1
sI5243
I1
sI5244
I1
sI5245
I2
sI5246
I5
sI5247
I2
sI5248
I1
sI5249
I1
sI5250
I6
sI5251
I2
sI5252
I7
sI5253
I1
sI5254
I3
sI5255
I1
sI5256
I1
sI5257
I1
sI5258
I2
sI5259
I3
sI5260
I1
sI5261
I1
sI5262
I1
sI5263
I1
sI5264
I1
sI5265
I1
sI5266
I3
sI5267
I3
sI5268
I1
sI5269
I2
sI5270
I2
sI5271
I2
sI5272
I2
sI5273
I1
sI5274
I5
sI5275
I1
sI5276
I6
sI5277
I1
sI5278
I4
sI5279
I3
sI5280
I1
sI5281
I7
sI5282
I1
sI5283
I2
sI5284
I1
sI5285
I2
sI5286
I1
sI5287
I1
sI5288
I1
sI5289
I4
sI5290
I1
sI5291
I5
sI5292
I3
sI5293
I2
sI5294
I1
sI5295
I1
sI5296
I2
sI5297
I1
sI5298
I7
sI5299
I1
sI5300
I1
sI5301
I6
sI5302
I1
sI5303
I1
sI5304
I1
sI5305
I6
sI5306
I1
sI5307
I2
sI5308
I1
sI5309
I1
sI5310
I4
sI5311
I1
sI5312
I2
sI5313
I2
sI5314
I1
sI5315
I1
sI5316
I1
sI5317
I1
sI5318
I2
sI5319
I1
sI5320
I1
sI5321
I1
sI5322
I3
sI5323
I1
sI5324
I1
sI5325
I4
sI5326
I1
sI5327
I1
sI5328
I1
sI5329
I6
sI5330
I2
sI5331
I1
sI5332
I6
sI5333
I1
sI5334
I1
sI5335
I1
sI5336
I1
sI5337
I1
sI5338
I3
sI5339
I1
sI5340
I1
sI5341
I1
sI5342
I1
sI5343
I1
sI5344
I4
sI5345
I3
sI5346
I7
sI5347
I2
sI5348
I1
sI5349
I1
sI5350
I1
sI5351
I1
sI5352
I1
sI5353
I1
sI5354
I4
sI5355
I1
sI5356
I1
sI5357
I2
sI5358
I1
sI5359
I1
sI5360
I2
sI5361
I1
sI5362
I2
sI5363
I1
sI5364
I1
sI5365
I1
sI5366
I1
sI5367
I1
sI5368
I1
sI5369
I1
sI5370
I5
sI5371
I1
sI5372
I3
sI5373
I1
sI5374
I1
sI5375
I1
sI5376
I2
sI5377
I1
sI5378
I2
sI5379
I1
sI5380
I1
sI5381
I1
sI5382
I1
sI5383
I1
sI5384
I1
sI5385
I1
sI5386
I5
sI5387
I6
sI5388
I6
sI5389
I1
sI5390
I2
sI5391
I1
sI5392
I2
sI5393
I1
sI5394
I1
sI5395
I1
sI5396
I1
sI5397
I2
sI5398
I1
sI5399
I2
sI5400
I1
sI5401
I1
sI5402
I4
sI5403
I2
sI5404
I2
sI5405
I2
sI5406
I1
sI5407
I1
sI5408
I2
sI5409
I1
sI5410
I1
sI5411
I2
sI5412
I1
sI5413
I1
sI5414
I1
sI5415
I6
sI5416
I1
sI5417
I1
sI5418
I1
sI5419
I3
sI5420
I1
sI5421
I1
sI5422
I1
sI5423
I2
sI5424
I1
sI5425
I3
sI5426
I1
sI5427
I1
sI5428
I1
sI5429
I1
sI5430
I2
sI5431
I1
sI5432
I2
sI5433
I1
sI5434
I2
sI5435
I1
sI5436
I2
sI5437
I1
sI5438
I2
sI5439
I1
sI5440
I1
sI5441
I2
sI5442
I3
sI5443
I1
sI5444
I4
sI5445
I1
sI5446
I1
sI5447
I1
sI5448
I1
sI5449
I1
sI5450
I1
sI5451
I2
sI5452
I1
sI5453
I6
sI5454
I1
sI5455
I1
sI5456
I1
sI5457
I1
sI5458
I1
sI5459
I7
sI5460
I1
sI5461
I1
sI5462
I2
sI5463
I1
sI5464
I1
sI5465
I1
sI5466
I1
sI5467
I1
sI5468
I1
sI5469
I3
sI5470
I2
sI5471
I1
sI5472
I6
sI5473
I1
sI5474
I1
sI5475
I1
sI5476
I1
sI5477
I1
sI5478
I1
sI5479
I1
sI5480
I1
sI5481
I1
sI5482
I3
sI5483
I1
sI5484
I3
sI5485
I3
sI5486
I1
sI5487
I1
sI5488
I1
sI5489
I3
sI5490
I3
sI5491
I1
sI5492
I2
sI5493
I1
sI5494
I1
sI5495
I1
sI5496
I1
sI5497
I2
sI5498
I1
sI5499
I1
sI5500
I1
sI5501
I4
sI5502
I1
sI5503
I1
sI5504
I4
sI5505
I4
sI5506
I1
sI5507
I1
sI5508
I1
sI5509
I1
sI5510
I1
sI5511
I2
sI5512
I1
sI5513
I3
sI5514
I4
sI5515
I1
sI5516
I1
sI5517
I1
sI5518
I1
sI5519
I2
sI5520
I1
sI5521
I1
sI5522
I6
sI5523
I3
sI5524
I1
sI5525
I1
sI5526
I8
sI5527
I1
sI5528
I2
sI5529
I1
sI5530
I1
sI5531
I6
sI5532
I4
sI5533
I1
sI5534
I11
sI5535
I2
sI5536
I3
sI5537
I1
sI5538
I1
sI5539
I1
sI5540
I1
sI5541
I2
sI5542
I1
sI5543
I1
sI5544
I1
sI5545
I1
sI5546
I3
sI5547
I1
sI5548
I1
sI5549
I1
sI5550
I4
sI5551
I1
sI5552
I1
sI5553
I2
sI5554
I2
sI5555
I3
sI5556
I4
sI5557
I1
sI5558
I1
sI5559
I1
sI5560
I1
sI5561
I2
sI5562
I1
sI5563
I1
sI5564
I6
sI5565
I3
sI5566
I1
sI5567
I1
sI5568
I5
sI5569
I4
sI5570
I1
sI5571
I1
sI5572
I1
sI5573
I1
sI5574
I1
sI5575
I1
sI5576
I1
sI5577
I1
sI5578
I2
sI5579
I1
sI5580
I1
sI5581
I1
sI5582
I3
sI5583
I1
sI5584
I3
sI5585
I1
sI5586
I1
sI5587
I1
sI5588
I1
sI5589
I3
sI5590
I4
sI5591
I2
sI5592
I3
sI5593
I1
sI5594
I1
sI5595
I1
sI5596
I1
sI5597
I3
sI5598
I2
sI5599
I1
sI5600
I1
sI5601
I1
sI5602
I1
sI5603
I1
sI5604
I1
sI5605
I1
sI5606
I1
sI5607
I1
sI5608
I3
sI5609
I5
sI5610
I1
sI5611
I3
sI5612
I2
sI5613
I2
sI5614
I11
sI5615
I1
sI5616
I1
sI5617
I1
sI5618
I1
sI5619
I1
sI5620
I3
sI5621
I1
sI5622
I4
sI5623
I2
sI5624
I3
sI5625
I2
sI5626
I1
sI5627
I1
sI5628
I2
sI5629
I1
sI5630
I1
sI5631
I1
sI5632
I1
sI5633
I1
sI5634
I3
sI5635
I1
sI5636
I2
sI5637
I1
sI5638
I2
sI5639
I6
sI5640
I2
sI5641
I1
sI5642
I1
sI5643
I1
sI5644
I1
sI5645
I4
sI5646
I1
sI5647
I1
sI5648
I1
sI5649
I3
sI5650
I1
sI5651
I1
sI5652
I1
sI5653
I1
sI5654
I1
sI5655
I1
sI5656
I1
sI5657
I1
sI5658
I4
sI5659
I1
sI5660
I2
sI5661
I1
sI5662
I1
sI5663
I1
sI5664
I3
sI5665
I2
sI5666
I1
sI5667
I1
sI5668
I1
sI5669
I1
sI5670
I1
sI5671
I1
sI5672
I1
sI5673
I1
sI5674
I1
sI5675
I3
sI5676
I2
sI5677
I3
sI5678
I1
sI5679
I1
sI5680
I1
sI5681
I1
sI5682
I1
sI5683
I1
sI5684
I3
sI5685
I3
sI5686
I2
sI5687
I4
sI5688
I1
sI5689
I2
sI5690
I2
sI5691
I1
sI5692
I1
sI5693
I5
sI5694
I7
sI5695
I1
sI5696
I2
sI5697
I1
sI5698
I2
sI5699
I6
sI5700
I2
sI5701
I1
sI5702
I1
sI5703
I1
sI5704
I1
sI5705
I1
sI5706
I1
sI5707
I1
sI5708
I1
sI5709
I1
sI5710
I1
sI5711
I2
sI5712
I1
sI5713
I2
sI5714
I2
sI5715
I1
sI5716
I1
sI5717
I2
sI5718
I3
sI5719
I1
sI5720
I1
sI5721
I1
sI5722
I2
sI5723
I1
sI5724
I1
sI5725
I1
sI5726
I2
sI5727
I2
sI5728
I1
sI5729
I1
sI5730
I2
sI5731
I1
sI5732
I1
sI5733
I1
sI5734
I1
sI5735
I1
sI5736
I4
sI5737
I1
sI5738
I1
sI5739
I3
sI5740
I1
sI5741
I2
sI5742
I1
sI5743
I1
sI5744
I1
sI5745
I1
sI5746
I1
sI5747
I2
sI5748
I1
sI5749
I2
sI5750
I1
sI5751
I1
sI5752
I2
sI5753
I2
sI5754
I1
sI5755
I1
sI5756
I1
sI5757
I1
sI5758
I1
sI5759
I1
sI5760
I2
sI5761
I1
sI5762
I3
sI5763
I2
sI5764
I1
sI5765
I2
sI5766
I1
sI5767
I1
sI5768
I1
sI5769
I1
sI5770
I1
sI5771
I1
sI5772
I1
sI5773
I4
sI5774
I1
sI5775
I3
sI5776
I2
sI5777
I1
sI5778
I2
sI5779
I4
sI5780
I1
sI5781
I1
sI5782
I1
sI5783
I3
sI5784
I1
sI5785
I3
sI5786
I1
sI5787
I2
sI5788
I1
sI5789
I1
sI5790
I1
sI5791
I1
sI5792
I2
sI5793
I1
sI5794
I8
sI5795
I1
sI5796
I4
sI5797
I1
sI5798
I1
sI5799
I1
sI5800
I8
sI5801
I1
sI5802
I1
sI5803
I3
sI5804
I1
sI5805
I2
sI5806
I2
sI5807
I1
sI5808
I2
sI5809
I2
sI5810
I2
sI5811
I1
sI5812
I1
sI5813
I1
sI5814
I1
sI5815
I1
sI5816
I1
sI5817
I4
sI5818
I1
sI5819
I1
sI5820
I1
sI5821
I1
sI5822
I1
sI5823
I2
sI5824
I5
sI5825
I1
sI5826
I3
sI5827
I1
sI5828
I1
sI5829
I1
sI5830
I1
sI5831
I1
sI5832
I7
sI5833
I1
sI5834
I1
sI5835
I1
sI5836
I1
sI5837
I1
sI5838
I1
sI5839
I4
sI5840
I1
sI5841
I1
sI5842
I2
sI5843
I1
sI5844
I1
sI5845
I2
sI5846
I7
sI5847
I1
sI5848
I5
sI5849
I1
sI5850
I1
sI5851
I7
sI5852
I1
sI5853
I1
sI5854
I4
sI5855
I1
sI5856
I1
sI5857
I6
sI5858
I1
sI5859
I2
sI5860
I1
sI5861
I1
sI5862
I2
sI5863
I1
sI5864
I1
sI5865
I1
sI5866
I1
sI5867
I1
sI5868
I1
sI5869
I1
sI5870
I1
sI5871
I1
sI5872
I1
sI5873
I1
sI5874
I1
sI5875
I3
sI5876
I1
sI5877
I3
sI5878
I2
sI5879
I1
sI5880
I1
sI5881
I1
sI5882
I2
sI5883
I2
sI5884
I1
sI5885
I2
sI5886
I2
sI5887
I2
sI5888
I2
sI5889
I1
sI5890
I3
sI5891
I1
sI5892
I8
sI5893
I1
sI5894
I1
sI5895
I1
sI5896
I3
sI5897
I1
sI5898
I1
sI5899
I1
sI5900
I1
sI5901
I1
sI5902
I1
sI5903
I1
sI5904
I1
sI5905
I2
sI5906
I1
sI5907
I1
sI5908
I1
sI5909
I1
sI5910
I1
sI5911
I2
sI5912
I2
sI5913
I1
sI5914
I1
sI5915
I1
sI5916
I2
sI5917
I3
sI5918
I3
sI5919
I3
sI5920
I1
sI5921
I1
sI5922
I2
sI5923
I1
sI5924
I1
sI5925
I1
sI5926
I1
sI5927
I1
sI5928
I1
sI5929
I3
sI5930
I2
sI5931
I2
sI5932
I1
sI5933
I1
sI5934
I1
sI5935
I1
sI5936
I1
sI5937
I1
sI5938
I3
sI5939
I1
sI5940
I1
sI5941
I1
sI5942
I1
sI5943
I1
sI5944
I2
sI5945
I1
sI5946
I1
sI5947
I1
sI5948
I3
sI5949
I2
sI5950
I1
sI5951
I1
sI5952
I2
sI5953
I1
sI5954
I1
sI5955
I4
sI5956
I1
sI5957
I1
sI5958
I1
sI5959
I1
sI5960
I1
sI5961
I1
sI5962
I1
sI5963
I1
sI5964
I1
sI5965
I1
sI5966
I1
sI5967
I1
sI5968
I1
sI5969
I1
sI5970
I3
sI5971
I1
sI5972
I1
sI5973
I1
sI5974
I1
sI5975
I1
sI5976
I3
sI5977
I2
sI5978
I1
sI5979
I2
sI5980
I1
sI5981
I1
sI5982
I5
sI5983
I1
sI5984
I1
sI5985
I1
sI5986
I2
sI5987
I1
sI5988
I1
sI5989
I5
sI5990
I1
sI5991
I1
sI5992
I1
sI5993
I1
sI5994
I2
sI5995
I1
sI5996
I1
sI5997
I4
sI5998
I4
sI5999
I3
sI6000
I2
sI6001
I2
sI6002
I1
sI6003
I4
sI6004
I4
sI6005
I4
sI6006
I2
sI6007
I1
sI6008
I3
sI6009
I3
sI6010
I1
sI6011
I5
sI6012
I1
sI6013
I1
sI6014
I1
sI6015
I1
sI6016
I9
sI6017
I1
sI6018
I1
sI6019
I1
sI6020
I1
sI6021
I1
sI6022
I2
sI6023
I2
sI6024
I1
sI6025
I1
sI6026
I2
sI6027
I1
sI6028
I1
sI6029
I1
sI6030
I1
sI6031
I1
sI6032
I1
sI6033
I1
sI6034
I1
sI6035
I1
sI6036
I1
sI6037
I1
sI6038
I1
sI6039
I1
sI6040
I4
sI6041
I1
sI6042
I2
sI6043
I2
sI6044
I1
sI6045
I1
sI6046
I2
sI6047
I1
sI6048
I11
sI6049
I1
sI6050
I1
sI6051
I2
sI6052
I1
sI6053
I2
sI6054
I2
sI6055
I1
sI6056
I1
sI6057
I1
sI6058
I1
sI6059
I2
sI6060
I1
sI6061
I1
sI6062
I1
sI6063
I1
sI6064
I1
sI6065
I2
sI6066
I2
sI6067
I2
sI6068
I1
sI6069
I1
sI6070
I1
sI6071
I1
sI6072
I1
sI6073
I1
sI6074
I1
sI6075
I1
sI6076
I1
sI6077
I1
sI6078
I3
sI6079
I1
sI6080
I1
sI6081
I1
sI6082
I1
sI6083
I1
sI6084
I2
sI6085
I1
sI6086
I1
sI6087
I1
sI6088
I4
sI6089
I1
sI6090
I1
sI6091
I1
sI6092
I1
sI6093
I1
sI6094
I1
sI6095
I1
sI6096
I1
sI6097
I1
sI6098
I1
sI6099
I2
sI6100
I2
sI6101
I2
sI6102
I1
sI6103
I1
sI6104
I1
sI6105
I1
sI6106
I2
sI6107
I1
sI6108
I2
sI6109
I1
sI6110
I1
sI6111
I1
sI6112
I1
sI6113
I1
sI6114
I1
sI6115
I1
sI6116
I2
sI6117
I1
sI6118
I1
sI6119
I1
sI6120
I1
sI6121
I2
sI6122
I1
sI6123
I1
sI6124
I1
sI6125
I1
sI6126
I2
sI6127
I1
sI6128
I2
sI6129
I1
sI6130
I2
sI6131
I1
sI6132
I1
sI6133
I1
sI6134
I1
sI6135
I1
sI6136
I3
sI6137
I1
sI6138
I1
sI6139
I1
sI6140
I1
sI6141
I1
sI6142
I1
sI6143
I1
sI6144
I2
sI6145
I1
sI6146
I1
sI6147
I2
sI6148
I2
sI6149
I1
sI6150
I1
sI6151
I1
sI6152
I2
sI6153
I1
sI6154
I1
sI6155
I1
sI6156
I1
sI6157
I1
sI6158
I2
sI6159
I1
sI6160
I1
sI6161
I2
sI6162
I1
sI6163
I3
sI6164
I1
sI6165
I2
sI6166
I1
sI6167
I1
sI6168
I1
sI6169
I1
sI6170
I1
sI6171
I1
sI6172
I2
sI6173
I1
sI6174
I1
sI6175
I1
sI6176
I1
sI6177
I1
sI6178
I1
sI6179
I5
sI6180
I2
sI6181
I1
sI6182
I2
sI6183
I2
sI6184
I1
sI6185
I1
sI6186
I1
sI6187
I1
sI6188
I1
sI6189
I1
sI6190
I1
sI6191
I1
sI6192
I1
sI6193
I1
sI6194
I6
sI6195
I2
sI6196
I1
sI6197
I5
sI6198
I1
sI6199
I1
sI6200
I1
sI6201
I1
sI6202
I1
sI6203
I5
sI6204
I1
sI6205
I1
sI6206
I1
sI6207
I1
sI6208
I1
sI6209
I1
sI6210
I1
sI6211
I1
sI6212
I1
sI6213
I1
sI6214
I1
sI6215
I1
sI6216
I1
sI6217
I2
sI6218
I1
sI6219
I1
sI6220
I1
sI6221
I1
sI6222
I2
sI6223
I1
sI6224
I1
sI6225
I1
sI6226
I1
sI6227
I1
sI6228
I1
sI6229
I1
sI6230
I1
sI6231
I2
sI6232
I1
sI6233
I6
sI6234
I1
sI6235
I2
sI6236
I1
sI6237
I4
sI6238
I1
sI6239
I1
sI6240
I1
sI6241
I1
sI6242
I1
sI6243
I2
sI6244
I1
sI6245
I1
sI6246
I1
sI6247
I1
sI6248
I1
sI6249
I1
sI6250
I2
sI6251
I1
sI6252
I2
sI6253
I1
sI6254
I1
sI6255
I1
sI6256
I1
sI6257
I1
sI6258
I2
sI6259
I5
sI6260
I1
sI6261
I1
sI6262
I2
sI6263
I1
sI6264
I3
sI6265
I2
sI6266
I1
sI6267
I1
sI6268
I2
sI6269
I1
sI6270
I1
sI6271
I4
sI6272
I1
sI6273
I1
sI6274
I1
sI6275
I1
sI6276
I1
sI6277
I3
sI6278
I1
sI6279
I2
sI6280
I1
sI6281
I1
sI6282
I1
sI6283
I1
sI6284
I1
sI6285
I1
sI6286
I1
sI6287
I2
sI6288
I1
sI6289
I1
sI6290
I1
sI6291
I1
sI6292
I1
sI6293
I2
sI6294
I1
sI6295
I1
sI6296
I2
sI6297
I1
sI6298
I8
sI6299
I1
sI6300
I1
sI6301
I2
sI6302
I1
sI6303
I2
sI6304
I1
sI6305
I1
sI6306
I4
sI6307
I1
sI6308
I2
sI6309
I1
sI6310
I9
sI6311
I3
sI6312
I1
sI6313
I3
sI6314
I1
sI6315
I3
sI6316
I1
sI6317
I8
sI6318
I1
sI6319
I2
sI6320
I2
sI6321
I1
sI6322
I1
sI6323
I1
sI6324
I1
sI6325
I2
sI6326
I1
sI6327
I1
sI6328
I2
sI6329
I1
sI6330
I2
sI6331
I1
sI6332
I1
sI6333
I1
sI6334
I1
sI6335
I10
sI6336
I3
sI6337
I1
sI6338
I2
sI6339
I1
sI6340
I1
sI6341
I3
sI6342
I1
sI6343
I1
sI6344
I1
sI6345
I1
sI6346
I1
sI6347
I2
sI6348
I1
sI6349
I1
sI6350
I1
sI6351
I1
sI6352
I1
sI6353
I2
sI6354
I1
sI6355
I2
sI6356
I1
sI6357
I1
sI6358
I1
sI6359
I1
sI6360
I1
sI6361
I1
sI6362
I2
sI6363
I1
sI6364
I1
sI6365
I2
sI6366
I1
sI6367
I1
sI6368
I3
sI6369
I1
sI6370
I3
sI6371
I2
sI6372
I2
sI6373
I1
sI6374
I2
sI6375
I3
sI6376
I1
sI6377
I1
sI6378
I1
sI6379
I1
sI6380
I1
sI6381
I1
sI6382
I2
sI6383
I1
sI6384
I4
sI6385
I1
sI6386
I1
sI6387
I1
sI6388
I1
sI6389
I1
sI6390
I1
sI6391
I1
sI6392
I4
sI6393
I2
sI6394
I2
sI6395
I1
sI6396
I1
sI6397
I2
sI6398
I2
sI6399
I1
sI6400
I2
sI6401
I1
sI6402
I9
sI6403
I3
sI6404
I1
sI6405
I1
sI6406
I1
sI6407
I1
sI6408
I1
sI6409
I1
sI6410
I2
sI6411
I1
sI6412
I2
sI6413
I1
sI6414
I1
sI6415
I1
sI6416
I1
sI6417
I1
sI6418
I1
sI6419
I3
sI6420
I3
sI6421
I1
sI6422
I2
sI6423
I2
sI6424
I1
sI6425
I1
sI6426
I1
sI6427
I1
sI6428
I1
sI6429
I2
sI6430
I1
sI6431
I2
sI6432
I1
sI6433
I1
sI6434
I1
sI6435
I1
sI6436
I1
sI6437
I1
sI6438
I1
sI6439
I1
sI6440
I1
sI6441
I2
sI6442
I1
sI6443
I1
sI6444
I1
sI6445
I1
sI6446
I1
sI6447
I1
sI6448
I3
sI6449
I2
sI6450
I1
sI6451
I1
sI6452
I1
sI6453
I2
sI6454
I1
sI6455
I2
sI6456
I1
sI6457
I1
sI6458
I1
sI6459
I1
sI6460
I1
sI6461
I1
sI6462
I3
sI6463
I1
sI6464
I1
sI6465
I1
sI6466
I3
sI6467
I1
sI6468
I1
sI6469
I1
sI6470
I2
sI6471
I1
sI6472
I1
sI6473
I15
sI6474
I1
sI6475
I1
sI6476
I3
sI6477
I1
sI6478
I1
sI6479
I1
sI6480
I2
sI6481
I1
sI6482
I1
sI6483
I1
sI6484
I1
sI6485
I1
sI6486
I1
sI6487
I1
sI6488
I1
sI6489
I3
sI6490
I2
sI6491
I3
sI6492
I2
sI6493
I1
sI6494
I1
sI6495
I2
sI6496
I1
sI6497
I1
sI6498
I1
sI6499
I1
sI6500
I1
sI6501
I1
sI6502
I1
sI6503
I1
sI6504
I3
sI6505
I1
sI6506
I1
sI6507
I1
sI6508
I1
sI6509
I1
sI6510
I2
sI6511
I1
sI6512
I1
sI6513
I1
sI6514
I1
sI6515
I3
sI6516
I2
sI6517
I1
sI6518
I2
sI6519
I3
sI6520
I1
sI6521
I1
sI6522
I1
sI6523
I1
sI6524
I1
sI6525
I1
sI6526
I1
sI6527
I1
sI6528
I1
sI6529
I1
sI6530
I1
sI6531
I2
sI6532
I2
sI6533
I1
sI6534
I1
sI6535
I1
sI6536
I2
sI6537
I2
sI6538
I1
sI6539
I1
sI6540
I1
sI6541
I1
sI6542
I1
sI6543
I1
sI6544
I1
sI6545
I1
sI6546
I1
sI6547
I1
sI6548
I1
sI6549
I3
sI6550
I1
sI6551
I1
sI6552
I1
sI6553
I1
sI6554
I1
sI6555
I1
sI6556
I2
sI6557
I1
sI6558
I1
sI6559
I1
sI6560
I1
sI6561
I1
sI6562
I1
sI6563
I2
sI6564
I1
sI6565
I2
sI6566
I1
sI6567
I1
sI6568
I1
sI6569
I1
sI6570
I1
sI6571
I3
sI6572
I1
sI6573
I1
sI6574
I1
sI6575
I1
sI6576
I1
sI6577
I1
sI6578
I1
sI6579
I2
sI6580
I2
sI6581
I1
sI6582
I1
sI6583
I5
sI6584
I2
sI6585
I3
sI6586
I1
sI6587
I4
sI6588
I1
sI6589
I1
sI6590
I1
sI6591
I1
sI6592
I1
sI6593
I1
sI6594
I2
sI6595
I1
sI6596
I1
sI6597
I2
sI6598
I1
sI6599
I2
sI6600
I2
sI6601
I1
sI6602
I2
sI6603
I1
sI6604
I3
sI6605
I1
sI6606
I1
sI6607
I1
sI6608
I1
sI6609
I1
sI6610
I2
sI6611
I1
sI6612
I2
sI6613
I1
sI6614
I2
sI6615
I1
sI6616
I1
sI6617
I1
sI6618
I1
sI6619
I1
sI6620
I1
sI6621
I1
sI6622
I1
sI6623
I1
sI6624
I1
sI6625
I1
sI6626
I1
sI6627
I3
sI6628
I2
sI6629
I1
sI6630
I4
sI6631
I1
sI6632
I1
sI6633
I1
sI6634
I1
sI6635
I1
sI6636
I3
sI6637
I1
sI6638
I1
sI6639
I1
sI6640
I1
sI6641
I1
sI6642
I1
sI6643
I1
sI6644
I1
sI6645
I1
sI6646
I1
sI6647
I1
sI6648
I1
sI6649
I5
sI6650
I1
sI6651
I3
sI6652
I1
sI6653
I1
sI6654
I2
sI6655
I1
sI6656
I2
sI6657
I1
sI6658
I1
sI6659
I1
sI6660
I1
sI6661
I1
sI6662
I1
sI6663
I1
sI6664
I1
sI6665
I1
sI6666
I2
sI6667
I1
sI6668
I1
sI6669
I2
sI6670
I1
sI6671
I1
sI6672
I1
sI6673
I2
sI6674
I1
sI6675
I1
sI6676
I1
sI6677
I1
sI6678
I1
sI6679
I1
sI6680
I3
sI6681
I1
sI6682
I1
sI6683
I1
sI6684
I2
sI6685
I1
sI6686
I2
sI6687
I4
sI6688
I1
sI6689
I1
sI6690
I1
sI6691
I2
sI6692
I2
sI6693
I1
sI6694
I1
sI6695
I1
sI6696
I1
sI6697
I1
sI6698
I1
sI6699
I1
sI6700
I3
sI6701
I1
sI6702
I1
sI6703
I1
sI6704
I1
sI6705
I1
sI6706
I1
sI6707
I1
sI6708
I1
sI6709
I1
sI6710
I1
sI6711
I1
sI6712
I1
sI6713
I1
sI6714
I1
sI6715
I1
sI6716
I1
sI6717
I1
sI6718
I10
sI6719
I1
sI6720
I2
sI6721
I1
sI6722
I1
sI6723
I1
sI6724
I1
sI6725
I1
sI6726
I1
sI6727
I1
sI6728
I1
sI6729
I2
sI6730
I9
sI6731
I1
sI6732
I1
sI6733
I2
sI6734
I1
sI6735
I2
sI6736
I2
sI6737
I1
sI6738
I2
sI6739
I1
sI6740
I1
sI6741
I1
sI6742
I1
sI6743
I4
sI6744
I1
sI6745
I3
sI6746
I3
sI6747
I1
sI6748
I1
sI6749
I1
sI6750
I1
sI6751
I1
sI6752
I1
sI6753
I3
sI6754
I2
sI6755
I1
sI6756
I1
sI6757
I1
sI6758
I2
sI6759
I1
sI6760
I1
sI6761
I1
sI6762
I2
sI6763
I1
sI6764
I1
sI6765
I1
sI6766
I1
sI6767
I1
sI6768
I1
sI6769
I2
sI6770
I1
sI6771
I1
sI6772
I1
sI6773
I1
sI6774
I1
sI6775
I2
sI6776
I1
sI6777
I1
sI6778
I2
sI6779
I3
sI6780
I1
sI6781
I2
sI6782
I1
sI6783
I1
sI6784
I1
sI6785
I2
sI6786
I1
sI6787
I1
sI6788
I1
sI6789
I3
sI6790
I2
sI6791
I1
sI6792
I1
sI6793
I2
sI6794
I1
sI6795
I1
sI6796
I1
sI6797
I1
sI6798
I1
sI6799
I3
sI6800
I1
sI6801
I1
sI6802
I1
sI6803
I1
sI6804
I1
sI6805
I2
sI6806
I1
sI6807
I1
sI6808
I1
sI6809
I1
sI6810
I1
sI6811
I1
sI6812
I1
sI6813
I1
sI6814
I1
sI6815
I1
sI6816
I1
sI6817
I2
sI6818
I1
sI6819
I2
sI6820
I1
sI6821
I1
sI6822
I3
sI6823
I1
sI6824
I3
sI6825
I2
sI6826
I1
sI6827
I1
sI6828
I1
sI6829
I1
sI6830
I1
sI6831
I1
sI6832
I1
sI6833
I2
sI6834
I3
sI6835
I1
sI6836
I2
sI6837
I2
sI6838
I1
sI6839
I3
sI6840
I1
sI6841
I1
sI6842
I1
sI6843
I2
sI6844
I1
sI6845
I1
sI6846
I1
sI6847
I1
sI6848
I1
sI6849
I1
sI6850
I1
sI6851
I1
sI6852
I1
sI6853
I1
sI6854
I1
sI6855
I1
sI6856
I1
sI6857
I1
sI6858
I2
sI6859
I1
sI6860
I1
sI6861
I1
sI6862
I1
sI6863
I1
sI6864
I1
sI6865
I2
sI6866
I7
sI6867
I2
sI6868
I1
sI6869
I1
sI6870
I1
sI6871
I1
sI6872
I1
sI6873
I2
sI6874
I3
sI6875
I2
sI6876
I1
sI6877
I1
sI6878
I1
sI6879
I1
sI6880
I1
sI6881
I1
sI6882
I1
sI6883
I2
sI6884
I1
sI6885
I1
sI6886
I1
sI6887
I1
sI6888
I1
sI6889
I1
sI6890
I1
sI6891
I1
sI6892
I1
sI6893
I2
sI6894
I1
sI6895
I1
sI6896
I1
sI6897
I2
sI6898
I1
sI6899
I4
sI6900
I1
sI6901
I2
sI6902
I2
sI6903
I1
sI6904
I2
sI6905
I2
sI6906
I1
sI6907
I1
sI6908
I3
sI6909
I1
sI6910
I1
sI6911
I1
sI6912
I2
sI6913
I1
sI6914
I1
sI6915
I1
sI6916
I1
sI6917
I1
sI6918
I5
sI6919
I1
sI6920
I1
sI6921
I1
sI6922
I1
sI6923
I1
sI6924
I1
sI6925
I1
sI6926
I1
sI6927
I1
sI6928
I1
sI6929
I1
sI6930
I3
sI6931
I1
sI6932
I1
sI6933
I1
sI6934
I1
sI6935
I1
sI6936
I1
sI6937
I1
sI6938
I3
sI6939
I1
sI6940
I1
sI6941
I1
sI6942
I1
sI6943
I1
sI6944
I2
sI6945
I1
sI6946
I1
sI6947
I1
sI6948
I1
sI6949
I1
sI6950
I1
sI6951
I1
sI6952
I2
sI6953
I1
sI6954
I1
sI6955
I2
sI6956
I3
sI6957
I1
sI6958
I1
sI6959
I1
sI6960
I1
sI6961
I1
sI6962
I1
sI6963
I1
sI6964
I1
sI6965
I1
sI6966
I1
sI6967
I1
sI6968
I1
sI6969
I2
sI6970
I1
sI6971
I4
sI6972
I1
sI6973
I2
sI6974
I1
sI6975
I1
sI6976
I1
sI6977
I2
sI6978
I1
sI6979
I1
sI6980
I1
sI6981
I1
sI6982
I4
sI6983
I1
sI6984
I1
sI6985
I2
sI6986
I1
sI6987
I1
sI6988
I1
sI6989
I2
sI6990
I2
sI6991
I1
sI6992
I1
sI6993
I1
sI6994
I1
sI6995
I2
sI6996
I2
sI6997
I1
sI6998
I2
sI6999
I1
sI7000
I1
sI7001
I1
sI7002
I1
sI7003
I1
sI7004
I2
sI7005
I1
sI7006
I3
sI7007
I2
sI7008
I1
sI7009
I1
sI7010
I1
sI7011
I1
sI7012
I1
sI7013
I1
sI7014
I2
sI7015
I3
sI7016
I1
sI7017
I1
sI7018
I3
sI7019
I1
sI7020
I2
sI7021
I1
sI7022
I2
sI7023
I1
sI7024
I2
sI7025
I2
sI7026
I1
sI7027
I1
sI7028
I1
sI7029
I5
sI7030
I1
sI7031
I1
sI7032
I1
sI7033
I1
sI7034
I1
sI7035
I1
sI7036
I1
sI7037
I1
sI7038
I1
sI7039
I1
sI7040
I1
sI7041
I1
sI7042
I4
sI7043
I1
sI7044
I1
sI7045
I1
sI7046
I1
sI7047
I1
sI7048
I6
sI7049
I5
sI7050
I1
sI7051
I1
sI7052
I1
sI7053
I3
sI7054
I1
sI7055
I1
sI7056
I1
sI7057
I2
sI7058
I2
sI7059
I1
sI7060
I3
sI7061
I4
sI7062
I2
sI7063
I1
sI7064
I1
sI7065
I1
sI7066
I1
sI7067
I3
sI7068
I2
sI7069
I2
sI7070
I1
sI7071
I1
sI7072
I7
sI7073
I1
sI7074
I1
sI7075
I2
sI7076
I1
sI7077
I1
sI7078
I1
sI7079
I1
sI7080
I1
sI7081
I1
sI7082
I1
sI7083
I1
sI7084
I2
sI7085
I2
sI7086
I1
sI7087
I2
sI7088
I1
sI7089
I1
sI7090
I1
sI7091
I1
sI7092
I2
sI7093
I1
sI7094
I1
sI7095
I1
sI7096
I2
sI7097
I2
sI7098
I1
sI7099
I4
sI7100
I2
sI7101
I1
sI7102
I1
sI7103
I1
sI7104
I1
sI7105
I1
sI7106
I1
sI7107
I1
sI7108
I1
sI7109
I1
sI7110
I1
sI7111
I1
sI7112
I1
sI7113
I1
sI7114
I1
sI7115
I1
sI7116
I1
sI7117
I1
sI7118
I1
sI7119
I1
sI7120
I1
sI7121
I1
sI7122
I1
sI7123
I1
sI7124
I1
sI7125
I1
sI7126
I1
sI7127
I1
sI7128
I1
sI7129
I1
sI7130
I1
sI7131
I1
sI7132
I1
sI7133
I1
sI7134
I2
sI7135
I1
sI7136
I1
sI7137
I1
sI7138
I1
sI7139
I1
sI7140
I1
sI7141
I2
sI7142
I2
sI7143
I1
sI7144
I1
sI7145
I1
sI7146
I1
sI7147
I2
sI7148
I1
sI7149
I1
sI7150
I1
sI7151
I1
sI7152
I1
sI7153
I1
sI7154
I1
sI7155
I1
sI7156
I1
sI7157
I1
sI7158
I1
sI7159
I1
sI7160
I2
sI7161
I1
sI7162
I2
sI7163
I1
sI7164
I1
sI7165
I1
sI7166
I1
sI7167
I1
sI7168
I1
sI7169
I2
sI7170
I1
sI7171
I2
sI7172
I1
sI7173
I1
sI7174
I1
sI7175
I1
sI7176
I1
sI7177
I1
sI7178
I1
sI7179
I1
sI7180
I2
sI7181
I1
sI7182
I1
sI7183
I1
sI7184
I1
sI7185
I1
sI7186
I1
sI7187
I2
sI7188
I1
sI7189
I1
sI7190
I1
sI7191
I1
sI7192
I1
sI7193
I1
sI7194
I1
sI7195
I1
sI7196
I1
sI7197
I1
sI7198
I1
sI7199
I1
sI7200
I1
sI7201
I1
sI7202
I2
sI7203
I1
sI7204
I1
sI7205
I3
sI7206
I2
sI7207
I1
sI7208
I1
sI7209
I1
sI7210
I1
sI7211
I1
sI7212
I1
sI7213
I1
sI7214
I1
sI7215
I2
sI7216
I1
sI7217
I1
sI7218
I1
sI7219
I1
sI7220
I1
sI7221
I1
sI7222
I1
sI7223
I1
sI7224
I2
sI7225
I1
sI7226
I1
sI7227
I1
sI7228
I2
sI7229
I4
sI7230
I1
sI7231
I1
sI7232
I1
sI7233
I1
sI7234
I1
sI7235
I1
sI7236
I1
sI7237
I3
sI7238
I1
sI7239
I3
sI7240
I1
sI7241
I2
sI7242
I1
sI7243
I1
sI7244
I1
sI7245
I1
sI7246
I1
sI7247
I1
sI7248
I2
sI7249
I1
sI7250
I1
sI7251
I1
sI7252
I1
sI7253
I1
sI7254
I2
sI7255
I1
sI7256
I1
sI7257
I1
sI7258
I2
sI7259
I1
sI7260
I1
sI7261
I1
sI7262
I1
sI7263
I1
sI7264
I1
sI7265
I1
sI7266
I1
sI7267
I1
sI7268
I1
sI7269
I1
sI7270
I1
sI7271
I2
sI7272
I6
sI7273
I1
sI7274
I1
sI7275
I1
sI7276
I2
sI7277
I1
sI7278
I1
sI7279
I2
sI7280
I4
sI7281
I1
sI7282
I1
sI7283
I1
sI7284
I2
sI7285
I3
sI7286
I1
sI7287
I2
sI7288
I1
sI7289
I1
sI7290
I3
sI7291
I3
sI7292
I1
sI7293
I1
sI7294
I1
sI7295
I1
sI7296
I1
sI7297
I1
sI7298
I2
sI7299
I2
sI7300
I1
sI7301
I1
sI7302
I1
sI7303
I1
sI7304
I1
sI7305
I1
sI7306
I1
sI7307
I3
sI7308
I2
sI7309
I1
sI7310
I1
sI7311
I1
sI7312
I1
sI7313
I1
sI7314
I1
sI7315
I1
sI7316
I1
sI7317
I1
sI7318
I1
sI7319
I2
sI7320
I1
sI7321
I1
sI7322
I1
sI7323
I1
sI7324
I1
sI7325
I1
sI7326
I1
sI7327
I1
sI7328
I2
sI7329
I1
sI7330
I1
sI7331
I1
sI7332
I1
sI7333
I1
sI7334
I3
sI7335
I1
sI7336
I1
sI7337
I1
sI7338
I1
sI7339
I5
sI7340
I1
sI7341
I1
sI7342
I1
sI7343
I1
sI7344
I1
sI7345
I1
sI7346
I1
sI7347
I1
sI7348
I1
sI7349
I1
sI7350
I1
sI7351
I1
sI7352
I1
sI7353
I1
sI7354
I1
sI7355
I1
sI7356
I1
sI7357
I1
sI7358
I1
sI7359
I1
sI7360
I3
sI7361
I1
sI7362
I1
sI7363
I1
sI7364
I2
sI7365
I1
sI7366
I1
sI7367
I2
sI7368
I2
sI7369
I1
sI7370
I1
sI7371
I1
sI7372
I1
sI7373
I3
sI7374
I1
sI7375
I1
sI7376
I1
sI7377
I1
sI7378
I1
sI7379
I5
sI7380
I1
sI7381
I2
sI7382
I1
sI7383
I1
sI7384
I1
sI7385
I1
sI7386
I1
sI7387
I1
sI7388
I1
sI7389
I1
sI7390
I2
sI7391
I1
sI7392
I1
sI7393
I1
sI7394
I1
sI7395
I1
sI7396
I1
sI7397
I1
sI7398
I1
sI7399
I1
sI7400
I3
sI7401
I2
sI7402
I1
sI7403
I1
sI7404
I1
sI7405
I1
sI7406
I1
sI7407
I1
sI7408
I1
sI7409
I2
sI7410
I1
sI7411
I2
sI7412
I1
sI7413
I1
sI7414
I1
sI7415
I1
sI7416
I1
sI7417
I1
sI7418
I2
sI7419
I1
sI7420
I1
sI7421
I2
sI7422
I1
sI7423
I1
sI7424
I1
sI7425
I1
sI7426
I1
sI7427
I1
sI7428
I5
sI7429
I2
sI7430
I1
sI7431
I1
sI7432
I1
sI7433
I1
sI7434
I1
sI7435
I1
sI7436
I1
sI7437
I1
sI7438
I1
sI7439
I1
sI7440
I1
sI7441
I1
sI7442
I2
sI7443
I1
sI7444
I1
sI7445
I3
sI7446
I1
sI7447
I3
sI7448
I1
sI7449
I1
sI7450
I2
sI7451
I1
sI7452
I1
sI7453
I1
sI7454
I3
sI7455
I1
sI7456
I1
sI7457
I1
sI7458
I1
sI7459
I1
sI7460
I1
sI7461
I1
sI7462
I1
sI7463
I2
sI7464
I1
sI7465
I1
sI7466
I1
sI7467
I1
sI7468
I2
sI7469
I1
sI7470
I1
sI7471
I1
sI7472
I1
sI7473
I1
sI7474
I1
sI7475
I4
sI7476
I1
sI7477
I3
sI7478
I1
sI7479
I1
sI7480
I1
sI7481
I1
sI7482
I1
sI7483
I1
sI7484
I1
sI7485
I1
sI7486
I2
sI7487
I1
sI7488
I1
sI7489
I1
sI7490
I2
sI7491
I1
sI7492
I1
sI7493
I1
sI7494
I1
sI7495
I1
sI7496
I1
sI7497
I1
sI7498
I1
sI7499
I1
sI7500
I1
sI7501
I1
sI7502
I1
sI7503
I1
sI7504
I1
sI7505
I1
sI7506
I1
sI7507
I1
sI7508
I2
sI7509
I1
sI7510
I1
sI7511
I1
sI7512
I1
sI7513
I1
sI7514
I1
sI7515
I1
sI7516
I1
sI7517
I1
sI7518
I1
sI7519
I1
sI7520
I1
sI7521
I1
sI7522
I1
sI7523
I1
sI7524
I1
sI7525
I1
sI7526
I1
sI7527
I1
sI7528
I1
sI7529
I1
sI7530
I2
sI7531
I1
sI7532
I1
sI7533
I1
sI7534
I1
sI7535
I2
sI7536
I1
sI7537
I2
sI7538
I1
sI7539
I1
sI7540
I1
sI7541
I1
sI7542
I1
sI7543
I1
sI7544
I1
sI7545
I1
sI7546
I1
sI7547
I1
sI7548
I1
sI7549
I1
sI7550
I1
sI7551
I1
sI7552
I1
sI7553
I1
sI7554
I1
sI7555
I1
sI7556
I1
sI7557
I2
sI7558
I2
sI7559
I1
sI7560
I1
sI7561
I1
sI7562
I2
sI7563
I1
sI7564
I1
sI7565
I1
sI7566
I1
sI7567
I1
sI7568
I2
sI7569
I1
sI7570
I1
sI7571
I1
sI7572
I1
sI7573
I1
sI7574
I2
sI7575
I1
sI7576
I1
sI7577
I1
sI7578
I1
sI7579
I1
sI7580
I1
sI7581
I1
sI7582
I1
sI7583
I1
sI7584
I2
sI7585
I2
sI7586
I2
sI7587
I1
sI7588
I1
sI7589
I1
sI7590
I1
sI7591
I1
sI7592
I2
sI7593
I1
sI7594
I2
sI7595
I2
sI7596
I1
sI7597
I1
sI7598
I2
sI7599
I2
sI7600
I1
sI7601
I1
sI7602
I1
sI7603
I1
sI7604
I1
sI7605
I1
sI7606
I1
sI7607
I1
sI7608
I1
sI7609
I1
sI7610
I1
sI7611
I1
sI7612
I1
sI7613
I2
sI7614
I1
sI7615
I2
sI7616
I1
sI7617
I2
sI7618
I1
sI7619
I1
sI7620
I2
sI7621
I3
sI7622
I1
sI7623
I1
sI7624
I2
sI7625
I1
sI7626
I2
sI7627
I2
sI7628
I1
sI7629
I1
sI7630
I1
sI7631
I1
sI7632
I1
sI7633
I1
sI7634
I1
sI7635
I2
sI7636
I1
sI7637
I1
sI7638
I1
sI7639
I2
sI7640
I1
sI7641
I1
sI7642
I1
sI7643
I1
sI7644
I3
sI7645
I1
sI7646
I1
sI7647
I1
sI7648
I1
sI7649
I2
sI7650
I1
sI7651
I1
sI7652
I1
sI7653
I1
sI7654
I1
sI7655
I1
sI7656
I1
sI7657
I1
sI7658
I1
sI7659
I1
sI7660
I1
sI7661
I2
sI7662
I2
sI7663
I1
sI7664
I1
sI7665
I2
sI7666
I1
sI7667
I1
sI7668
I1
sI7669
I1
sI7670
I1
sI7671
I1
sI7672
I1
sI7673
I1
sI7674
I3
sI7675
I10
sI7676
I1
sI7677
I1
sI7678
I1
sI7679
I1
sI7680
I2
sI7681
I1
sI7682
I2
sI7683
I1
sI7684
I1
sI7685
I1
sI7686
I1
sI7687
I1
sI7688
I1
sI7689
I1
sI7690
I1
sI7691
I1
sI7692
I1
sI7693
I1
sI7694
I1
sI7695
I2
sI7696
I1
sI7697
I1
sI7698
I1
sI7699
I1
sI7700
I1
sI7701
I2
sI7702
I2
sI7703
I1
sI7704
I1
sI7705
I1
sI7706
I1
sI7707
I1
sI7708
I1
sI7709
I1
sI7710
I1
sI7711
I1
sI7712
I1
sI7713
I2
sI7714
I1
sI7715
I1
sI7716
I1
sI7717
I1
sI7718
I1
sI7719
I1
sI7720
I1
sI7721
I1
sI7722
I1
sI7723
I1
sI7724
I1
sI7725
I1
sI7726
I1
sI7727
I1
sI7728
I1
sI7729
I1
sI7730
I1
sI7731
I2
sI7732
I1
sI7733
I1
sI7734
I2
sI7735
I1
sI7736
I1
sI7737
I1
sI7738
I1
sI7739
I1
sI7740
I2
sI7741
I1
sI7742
I3
sI7743
I1
sI7744
I1
sI7745
I1
sI7746
I1
sI7747
I1
sI7748
I1
sI7749
I2
sI7750
I1
sI7751
I1
sI7752
I2
sI7753
I1
sI7754
I1
sI7755
I1
sI7756
I1
sI7757
I1
sI7758
I1
sI7759
I1
sI7760
I1
sI7761
I5
sI7762
I1
sI7763
I1
sI7764
I1
sI7765
I1
sI7766
I1
sI7767
I1
sI7768
I1
sI7769
I1
sI7770
I1
sI7771
I1
sI7772
I1
sI7773
I1
sI7774
I1
sI7775
I2
sI7776
I1
sI7777
I3
sI7778
I1
sI7779
I1
sI7780
I1
sI7781
I1
sI7782
I1
sI7783
I1
sI7784
I1
sI7785
I1
sI7786
I1
sI7787
I1
sI7788
I2
sI7789
I1
sI7790
I2
sI7791
I1
sI7792
I1
sI7793
I1
sI7794
I1
sI7795
I1
sI7796
I2
sI7797
I1
sI7798
I2
sI7799
I1
sI7800
I1
sI7801
I1
sI7802
I1
sI7803
I1
sI7804
I1
sI7805
I1
sI7806
I1
sI7807
I1
sI7808
I1
sI7809
I2
sI7810
I1
sI7811
I1
sI7812
I1
sI7813
I1
sI7814
I1
sI7815
I2
sI7816
I1
sI7817
I1
sI7818
I1
sI7819
I1
sI7820
I1
sI7821
I1
sI7822
I3
sI7823
I2
sI7824
I1
sI7825
I1
sI7826
I1
sI7827
I1
sI7828
I1
sI7829
I1
sI7830
I1
sI7831
I1
sI7832
I1
sI7833
I2
sI7834
I1
sI7835
I1
sI7836
I1
sI7837
I1
sI7838
I1
sI7839
I1
sI7840
I2
sI7841
I1
sI7842
I1
sI7843
I1
sI7844
I1
sI7845
I1
sI7846
I1
sI7847
I1
sI7848
I1
sI7849
I1
sI7850
I1
sI7851
I1
sI7852
I1
sI7853
I1
sI7854
I1
sI7855
I1
sI7856
I1
sI7857
I1
sI7858
I1
sI7859
I1
sI7860
I2
sI7861
I2
sI7862
I1
sI7863
I1
sI7864
I2
sI7865
I1
sI7866
I1
sI7867
I1
sI7868
I1
sI7869
I1
sI7870
I2
sI7871
I2
sI7872
I2
sI7873
I1
sI7874
I1
sI7875
I1
sI7876
I1
sI7877
I1
sI7878
I1
sI7879
I3
sI7880
I1
sI7881
I1
sI7882
I1
sI7883
I1
sI7884
I1
sI7885
I1
sI7886
I1
sI7887
I1
sI7888
I1
sI7889
I3
sI7890
I2
sI7891
I2
sI7892
I1
sI7893
I1
sI7894
I1
sI7895
I1
sI7896
I1
sI7897
I2
sI7898
I1
sI7899
I1
sI7900
I1
sI7901
I1
sI7902
I1
sI7903
I1
sI7904
I2
sI7905
I1
sI7906
I1
sI7907
I1
sI7908
I1
sI7909
I1
sI7910
I1
sI7911
I1
sI7912
I1
sI7913
I2
sI7914
I1
sI7915
I1
sI7916
I1
sI7917
I1
sI7918
I3
sI7919
I1
sI7920
I1
sI7921
I1
sI7922
I1
sI7923
I1
sI7924
I1
sI7925
I1
sI7926
I1
sI7927
I1
sI7928
I3
sI7929
I1
sI7930
I1
sI7931
I2
sI7932
I3
sI7933
I1
sI7934
I1
sI7935
I1
sI7936
I1
sI7937
I1
sI7938
I1
sI7939
I1
sI7940
I1
sI7941
I1
sI7942
I1
sI7943
I1
sI7944
I1
sI7945
I1
sI7946
I1
sI7947
I1
sI7948
I3
sI7949
I2
sI7950
I1
sI7951
I1
sI7952
I1
sI7953
I3
sI7954
I1
sI7955
I1
sI7956
I1
sI7957
I3
sI7958
I1
sI7959
I2
sI7960
I2
sI7961
I2
sI7962
I1
sI7963
I6
sI7964
I4
sI7965
I1
sI7966
I1
sI7967
I1
sI7968
I1
sI7969
I1
sI7970
I1
sI7971
I1
sI7972
I3
sI7973
I1
sI7974
I1
sI7975
I1
sI7976
I1
sI7977
I1
sI7978
I1
sI7979
I1
sI7980
I1
sI7981
I1
sI7982
I1
sI7983
I1
sI7984
I1
sI7985
I1
sI7986
I1
sI7987
I1
sI7988
I1
sI7989
I1
sI7990
I2
sI7991
I1
sI7992
I1
sI7993
I1
sI7994
I2
sI7995
I1
sI7996
I1
sI7997
I1
sI7998
I1
sI7999
I1
sI8000
I1
sI8001
I1
sI8002
I1
sI8003
I1
sI8004
I1
sI8005
I1
sI8006
I1
sI8007
I1
sI8008
I1
sI8009
I1
sI8010
I1
sI8011
I1
sI8012
I1
sI8013
I1
sI8014
I1
sI8015
I2
sI8016
I1
sI8017
I1
sI8018
I1
sI8019
I1
sI8020
I1
sI8021
I1
sI8022
I1
sI8023
I1
sI8024
I1
sI8025
I1
sI8026
I2
sI8027
I1
sI8028
I1
sI8029
I1
sI8030
I3
sI8031
I1
sI8032
I1
sI8033
I1
sI8034
I1
sI8035
I2
sI8036
I1
sI8037
I1
sI8038
I2
sI8039
I1
sI8040
I1
sI8041
I1
sI8042
I1
sI8043
I1
sI8044
I1
sI8045
I1
sI8046
I1
sI8047
I1
sI8048
I1
sI8049
I1
sI8050
I1
sI8051
I1
sI8052
I1
sI8053
I1
sI8054
I1
sI8055
I1
sI8056
I2
sI8057
I2
sI8058
I1
sI8059
I1
sI8060
I1
sI8061
I1
sI8062
I1
sI8063
I1
sI8064
I1
sI8065
I1
sI8066
I3
sI8067
I2
sI8068
I1
sI8069
I1
sI8070
I1
sI8071
I1
sI8072
I1
sI8073
I1
sI8074
I1
sI8075
I1
sI8076
I2
sI8077
I2
sI8078
I1
sI8079
I1
sI8080
I2
sI8081
I1
sI8082
I1
sI8083
I1
sI8084
I1
sI8085
I1
sI8086
I1
sI8087
I1
sI8088
I1
sI8089
I1
sI8090
I1
sI8091
I1
sI8092
I1
sI8093
I1
sI8094
I1
sI8095
I1
sI8096
I1
sI8097
I1
sI8098
I1
sI8099
I1
sI8100
I1
sI8101
I1
sI8102
I1
sI8103
I1
sI8104
I1
sI8105
I1
sI8106
I1
sI8107
I1
sI8108
I1
sI8109
I1
sI8110
I1
sI8111
I1
sI8112
I1
sI8113
I1
sI8114
I1
sI8115
I1
sI8116
I1
sI8117
I2
sI8118
I1
sI8119
I1
sI8120
I1
sI8121
I2
sI8122
I1
sI8123
I1
sI8124
I2
sI8125
I1
sI8126
I1
sI8127
I1
sI8128
I1
sI8129
I1
sI8130
I1
sI8131
I1
sI8132
I1
sI8133
I1
sI8134
I1
sI8135
I1
sI8136
I1
sI8137
I1
sI8138
I2
sI8139
I1
sI8140
I1
sI8141
I1
sI8142
I1
sI8143
I1
sI8144
I1
sI8145
I1
sI8146
I1
sI8147
I1
sI8148
I1
sI8149
I1
sI8150
I1
sI8151
I1
sI8152
I1
sI8153
I2
sI8154
I1
sI8155
I1
sI8156
I1
sI8157
I1
sI8158
I1
sI8159
I1
sI8160
I1
sI8161
I1
sI8162
I1
sI8163
I1
sI8164
I1
sI8165
I1
sI8166
I3
sI8167
I2
sI8168
I3
sI8169
I1
sI8170
I2
sI8171
I1
sI8172
I1
sI8173
I1
sI8174
I1
sI8175
I2
sI8176
I2
sI8177
I1
sI8178
I1
sI8179
I1
sI8180
I1
sI8181
I1
sI8182
I1
sI8183
I1
sI8184
I1
sI8185
I1
sI8186
I1
sI8187
I1
sI8188
I1
sI8189
I1
sI8190
I1
sI8191
I1
sI8192
I1
sI8193
I1
sI8194
I1
sI8195
I2
sI8196
I1
sI8197
I1
sI8198
I1
sI8199
I1
sI8200
I1
sI8201
I1
sI8202
I3
sI8203
I1
sI8204
I1
sI8205
I1
sI8206
I1
sI8207
I1
sI8208
I1
sI8209
I1
sI8210
I1
sI8211
I1
sI8212
I1
sI8213
I1
sI8214
I2
sI8215
I1
sI8216
I1
sI8217
I1
sI8218
I2
sI8219
I1
sI8220
I1
sI8221
I1
sI8222
I1
sI8223
I3
sI8224
I1
sI8225
I1
sI8226
I1
sI8227
I1
sI8228
I1
sI8229
I1
sI8230
I1
sI8231
I1
sI8232
I1
sI8233
I1
sI8234
I1
sI8235
I1
sI8236
I1
sI8237
I1
sI8238
I2
sI8239
I1
sI8240
I1
sI8241
I1
sI8242
I3
sI8243
I1
sI8244
I1
sI8245
I1
sI8246
I1
sI8247
I1
sI8248
I1
sI8249
I1
sI8250
I1
sI8251
I1
sI8252
I2
sI8253
I1
sI8254
I1
sI8255
I1
sI8256
I1
sI8257
I1
sI8258
I1
sI8259
I1
sI8260
I1
sI8261
I1
sI8262
I1
sI8263
I1
sI8264
I2
sI8265
I1
sI8266
I1
sI8267
I1
sI8268
I1
sI8269
I1
sI8270
I1
sI8271
I1
sI8272
I2
sI8273
I1
sI8274
I1
sI8275
I1
sI8276
I1
sI8277
I3
sI8278
I1
sI8279
I1
sI8280
I1
sI8281
I1
sI8282
I1
sI8283
I1
sI8284
I1
sI8285
I1
sI8286
I1
sI8287
I1
sI8288
I1
sI8289
I1
sI8290
I1
sI8291
I1
sI8292
I2
sI8293
I2
sI8294
I1
sI8295
I1
sI8296
I1
sI8297
I1
sI8298
I1
sI8299
I1
sI8300
I1
sI8301
I1
sI8302
I1
sI8303
I3
sI8304
I1
sI8305
I1
sI8306
I1
sI8307
I1
sI8308
I1
sI8309
I1
sI8310
I1
sI8311
I1
sI8312
I1
sI8313
I1
sI8314
I1
sI8315
I1
sI8316
I1
sI8317
I1
sI8318
I1
sI8319
I1
sI8320
I1
sI8321
I1
sI8322
I1
sI8323
I1
sI8324
I1
sI8325
I1
sI8326
I1
sI8327
I2
sI8328
I1
sI8329
I1
sI8330
I1
sI8331
I1
sI8332
I1
sI8333
I1
sI8334
I2
sI8335
I1
sI8336
I1
sI8337
I1
sI8338
I1
sI8339
I1
sI8340
I2
sI8341
I1
sI8342
I1
sI8343
I2
sI8344
I1
sI8345
I1
sI8346
I5
sI8347
I4
sI8348
I1
sI8349
I1
sI8350
I1
sI8351
I1
sI8352
I1
sI8353
I2
sI8354
I1
sI8355
I1
sI8356
I1
sI8357
I1
sI8358
I1
sI8359
I1
sI8360
I1
sI8361
I1
sI8362
I1
sI8363
I1
sI8364
I1
sI8365
I1
sI8366
I1
sI8367
I2
sI8368
I1
sI8369
I1
sI8370
I1
sI8371
I1
sI8372
I1
sI8373
I1
sI8374
I1
sI8375
I1
sI8376
I1
sI8377
I1
sI8378
I1
sI8379
I1
sI8380
I2
sI8381
I1
sI8382
I3
sI8383
I1
sI8384
I1
sI8385
I1
sI8386
I1
sI8387
I1
sI8388
I1
sI8389
I2
sI8390
I1
sI8391
I1
sI8392
I4
sI8393
I1
sI8394
I4
sI8395
I1
sI8396
I1
sI8397
I1
sI8398
I1
sI8399
I2
sI8400
I1
sI8401
I1
sI8402
I1
sI8403
I1
sI8404
I1
sI8405
I1
sI8406
I1
sI8407
I1
sI8408
I1
sI8409
I1
sI8410
I1
sI8411
I1
sI8412
I1
sI8413
I1
sI8414
I1
sI8415
I1
sI8416
I1
sI8417
I1
sI8418
I1
sI8419
I1
sI8420
I1
sI8421
I1
sI8422
I1
sI8423
I1
sI8424
I1
sI8425
I1
sI8426
I1
sI8427
I1
sI8428
I1
sI8429
I1
sI8430
I1
sI8431
I1
sI8432
I1
sI8433
I1
sI8434
I1
sI8435
I1
sI8436
I1
sI8437
I1
sI8438
I3
sI8439
I1
sI8440
I1
sI8441
I3
sI8442
I1
sI8443
I1
sI8444
I2
sI8445
I1
sI8446
I1
sI8447
I1
sI8448
I1
sI8449
I1
sI8450
I1
sI8451
I1
sI8452
I1
sI8453
I1
sI8454
I1
sI8455
I1
sI8456
I2
sI8457
I1
sI8458
I1
sI8459
I1
sI8460
I1
sI8461
I1
sI8462
I1
sI8463
I1
sI8464
I1
sI8465
I1
sI8466
I2
sI8467
I1
sI8468
I1
sI8469
I1
sI8470
I1
sI8471
I1
sI8472
I1
sI8473
I1
sI8474
I1
sI8475
I1
sI8476
I1
sI8477
I1
sI8478
I1
sI8479
I1
sI8480
I1
sI8481
I1
sI8482
I1
sI8483
I1
sI8484
I1
sI8485
I1
sI8486
I1
sI8487
I2
sI8488
I1
sI8489
I1
sI8490
I1
sI8491
I1
sI8492
I1
sI8493
I1
sI8494
I1
sI8495
I1
sI8496
I1
sI8497
I1
sI8498
I1
sI8499
I1
sI8500
I1
sI8501
I1
sI8502
I1
sI8503
I1
sI8504
I1
sI8505
I1
sI8506
I1
sI8507
I1
sI8508
I1
sI8509
I1
sI8510
I1
sI8511
I3
sI8512
I1
sI8513
I1
sI8514
I1
sI8515
I1
sI8516
I1
sI8517
I1
sI8518
I1
sI8519
I1
sI8520
I2
sI8521
I1
sI8522
I1
sI8523
I1
sI8524
I1
sI8525
I1
sI8526
I2
sI8527
I1
sI8528
I1
sI8529
I1
sI8530
I1
sI8531
I1
sI8532
I1
sI8533
I1
sI8534
I1
sI8535
I1
sI8536
I2
sI8537
I1
sI8538
I1
sI8539
I1
sI8540
I11
sI8541
I1
sI8542
I3
sI8543
I3
sI8544
I1
sI8545
I1
sI8546
I1
sI8547
I1
sI8548
I1
sI8549
I1
sI8550
I1
sI8551
I1
sI8552
I1
sI8553
I1
sI8554
I2
sI8555
I1
sI8556
I1
sI8557
I1
sI8558
I2
sI8559
I1
sI8560
I3
sI8561
I1
sI8562
I1
sI8563
I1
sI8564
I2
sI8565
I1
sI8566
I1
sI8567
I1
sI8568
I1
sI8569
I1
sI8570
I1
sI8571
I1
sI8572
I1
sI8573
I2
sI8574
I1
sI8575
I1
sI8576
I1
sI8577
I1
sI8578
I1
sI8579
I1
sI8580
I1
sI8581
I1
sI8582
I2
sI8583
I1
sI8584
I1
sI8585
I4
sI8586
I1
sI8587
I1
sI8588
I2
sI8589
I1
sI8590
I1
sI8591
I1
sI8592
I1
sI8593
I1
sI8594
I1
sI8595
I1
sI8596
I1
sI8597
I1
sI8598
I1
sI8599
I1
sI8600
I1
sI8601
I1
sI8602
I1
sI8603
I1
sI8604
I1
sI8605
I1
sI8606
I1
sI8607
I1
sI8608
I1
sI8609
I1
sI8610
I1
sI8611
I1
sI8612
I1
sI8613
I1
sI8614
I1
sI8615
I1
sI8616
I1
sI8617
I1
sI8618
I1
sI8619
I1
sI8620
I1
sI8621
I1
sI8622
I1
sI8623
I1
sI8624
I1
sI8625
I2
sI8626
I1
sI8627
I1
sI8628
I1
sI8629
I1
sI8630
I1
sI8631
I1
sI8632
I1
sI8633
I1
sI8634
I1
sI8635
I1
sI8636
I1
sI8637
I1
sI8638
I1
sI8639
I1
sI8640
I1
sI8641
I1
sI8642
I1
sI8643
I1
sI8644
I1
sI8645
I1
sI8646
I1
sI8647
I2
sI8648
I1
sI8649
I1
sI8650
I1
sI8651
I1
sI8652
I1
sI8653
I1
sI8654
I1
sI8655
I3
sI8656
I1
sI8657
I1
sI8658
I1
sI8659
I1
sI8660
I1
sI8661
I1
sI8662
I1
sI8663
I1
sI8664
I1
sI8665
I1
sI8666
I2
sI8667
I1
sI8668
I1
sI8669
I1
sI8670
I1
sI8671
I1
sI8672
I1
sI8673
I1
sI8674
I1
sI8675
I1
sI8676
I1
sI8677
I1
sI8678
I1
sI8679
I1
sI8680
I1
sI8681
I1
sI8682
I1
sI8683
I1
sI8684
I1
sI8685
I1
sI8686
I1
sI8687
I1
sI8688
I1
sI8689
I1
sI8690
I1
sI8691
I1
sI8692
I1
sI8693
I1
sI8694
I2
sI8695
I1
sI8696
I1
sI8697
I1
sI8698
I1
sI8699
I1
sI8700
I1
sI8701
I1
sI8702
I1
sI8703
I1
sI8704
I1
sI8705
I3
sI8706
I1
sI8707
I1
sI8708
I1
sI8709
I1
sI8710
I1
sI8711
I2
sI8712
I1
sI8713
I1
sI8714
I1
sI8715
I1
sI8716
I1
sI8717
I1
sI8718
I1
sI8719
I1
sI8720
I1
sI8721
I1
sI8722
I3
sI8723
I1
sI8724
I1
sI8725
I1
sI8726
I1
sI8727
I1
sI8728
I1
sI8729
I1
sI8730
I1
sI8731
I1
sI8732
I1
sI8733
I1
sI8734
I1
sI8735
I1
sI8736
I1
sI8737
I1
sI8738
I1
sI8739
I1
sI8740
I1
sI8741
I1
sI8742
I1
sI8743
I1
sI8744
I1
sI8745
I1
sI8746
I1
sI8747
I1
sI8748
I1
sI8749
I1
sI8750
I1
sI8751
I1
sI8752
I1
sI8753
I1
sI8754
I1
sI8755
I1
sI8756
I1
sI8757
I1
sI8758
I1
sI8759
I1
sI8760
I1
sI8761
I1
sI8762
I1
sI8763
I1
sI8764
I1
sI8765
I1
sI8766
I1
sI8767
I1
sI8768
I1
sI8769
I1
sI8770
I1
sI8771
I1
sI8772
I1
sI8773
I1
sI8774
I1
sI8775
I1
sI8776
I1
sI8777
I1
sI8778
I1
sI8779
I1
sI8780
I1
sI8781
I1
sI8782
I2
sI8783
I1
sI8784
I1
sI8785
I1
sI8786
I1
sI8787
I1
sI8788
I2
sI8789
I1
sI8790
I2
sI8791
I1
sI8792
I1
sI8793
I2
sI8794
I1
sI8795
I1
sI8796
I1
sI8797
I1
sI8798
I2
sI8799
I1
sI8800
I1
sI8801
I1
sI8802
I1
sI8803
I1
sI8804
I1
sI8805
I1
sI8806
I1
sI8807
I1
sI8808
I1
sI8809
I1
sI8810
I1
sI8811
I1
sI8812
I1
sI8813
I1
sI8814
I1
sI8815
I1
sI8816
I1
sI8817
I1
sI8818
I1
sI8819
I1
sI8820
I1
sI8821
I1
sI8822
I1
sI8823
I1
sI8824
I1
sI8825
I1
sI8826
I1
sI8827
I1
sI8828
I1
sI8829
I1
sI8830
I1
sI8831
I2
sI8832
I1
sI8833
I1
sI8834
I1
sI8835
I2
sI8836
I1
sI8837
I3
sI8838
I1
sI8839
I1
sI8840
I1
sI8841
I1
sI8842
I1
sI8843
I1
sI8844
I1
sI8845
I1
sI8846
I1
sI8847
I1
sI8848
I1
sI8849
I1
sI8850
I1
sI8851
I1
sI8852
I1
sI8853
I1
sI8854
I1
sI8855
I1
sI8856
I1
sI8857
I1
sI8858
I1
sI8859
I1
sI8860
I1
sI8861
I1
sI8862
I1
sI8863
I1
sI8864
I1
sI8865
I1
sI8866
I1
sI8867
I1
sI8868
I1
sI8869
I1
sI8870
I1
sI8871
I1
sI8872
I1
sI8873
I1
sI8874
I1
sI8875
I1
sI8876
I1
sI8877
I1
sI8878
I1
sI8879
I1
sI8880
I1
sI8881
I1
sI8882
I1
sI8883
I1
sI8884
I1
sI8885
I1
sI8886
I1
sI8887
I1
sI8888
I1
sI8889
I1
sI8890
I1
sI8891
I1
sI8892
I1
sI8893
I1
sI8894
I1
sI8895
I1
sI8896
I1
sI8897
I6
sI8898
I1
sI8899
I1
sI8900
I1
sI8901
I1
sI8902
I1
sI8903
I1
sI8904
I1
sI8905
I1
sI8906
I1
sI8907
I1
sI8908
I1
sI8909
I1
sI8910
I2
sI8911
I1
sI8912
I1
sI8913
I2
sI8914
I1
sI8915
I1
sI8916
I2
sI8917
I1
sI8918
I1
sI8919
I1
sI8920
I1
sI8921
I1
sI8922
I1
sI8923
I1
sI8924
I1
sI8925
I1
sI8926
I1
sI8927
I1
sI8928
I1
sI8929
I1
sI8930
I1
sI8931
I1
sI8932
I1
sI8933
I1
sI8934
I1
sI8935
I1
sI8936
I1
sI8937
I1
sI8938
I1
sI8939
I1
sI8940
I1
sI8941
I1
sI8942
I1
sI8943
I1
sI8944
I1
sI8945
I1
sI8946
I1
sI8947
I1
sI8948
I1
sI8949
I1
sI8950
I1
sI8951
I1
sI8952
I2
sI8953
I1
sI8954
I1
sI8955
I1
sI8956
I1
sI8957
I1
sI8958
I1
sI8959
I1
sI8960
I1
sI8961
I1
sI8962
I1
sI8963
I2
sI8964
I1
sI8965
I1
sI8966
I1
sI8967
I1
sI8968
I1
sI8969
I1
sI8970
I1
sI8971
I2
sI8972
I1
sI8973
I1
sI8974
I1
sI8975
I1
sI8976
I1
sI8977
I1
sI8978
I1
sI8979
I1
sI8980
I1
sI8981
I1
sI8982
I1
sI8983
I2
sI8984
I1
sI8985
I3
sI8986
I1
sI8987
I1
sI8988
I1
sI8989
I1
sI8990
I1
sI8991
I1
sI8992
I1
sI8993
I2
sI8994
I1
sI8995
I1
sI8996
I1
sI8997
I1
sI8998
I1
sI8999
I1
sI9000
I1
sI9001
I1
sI9002
I1
sI9003
I1
sI9004
I1
sI9005
I1
sI9006
I1
sI9007
I1
sI9008
I1
sI9009
I1
sI9010
I1
sI9011
I1
sI9012
I1
sI9013
I1
sI9014
I1
sI9015
I1
sI9016
I1
sI9017
I1
sI9018
I1
sI9019
I1
sI9020
I1
sI9021
I1
sI9022
I1
sI9023
I2
sI9024
I1
sI9025
I1
sI9026
I1
sI9027
I1
sI9028
I1
sI9029
I1
sI9030
I1
sI9031
I1
sI9032
I1
sI9033
I1
sI9034
I1
sI9035
I1
sI9036
I1
sI9037
I1
sI9038
I1
sI9039
I1
sI9040
I1
sI9041
I1
sI9042
I1
sI9043
I1
sI9044
I1
sI9045
I1
sI9046
I1
sI9047
I1
sI9048
I1
sI9049
I1
sI9050
I1
sI9051
I1
sI9052
I2
sI9053
I1
sI9054
I1
sI9055
I1
sI9056
I1
sI9057
I2
sI9058
I1
sI9059
I1
sI9060
I1
sI9061
I1
sI9062
I1
sI9063
I1
sI9064
I1
sI9065
I1
sI9066
I1
sI9067
I1
sI9068
I1
sI9069
I1
sI9070
I1
sI9071
I1
sI9072
I1
sI9073
I1
sI9074
I1
sI9075
I1
sI9076
I1
sI9077
I1
sI9078
I2
sI9079
I1
sI9080
I3
sI9081
I1
sI9082
I1
sI9083
I1
sI9084
I1
sI9085
I1
sI9086
I1
sI9087
I1
sI9088
I1
sI9089
I1
sI9090
I1
sI9091
I1
sI9092
I1
sI9093
I1
sI9094
I1
sI9095
I1
sI9096
I1
sI9097
I1
sI9098
I1
sI9099
I1
sI9100
I1
sI9101
I1
sI9102
I1
sI9103
I2
sI9104
I1
sI9105
I1
sI9106
I1
sI9107
I1
sI9108
I1
sI9109
I1
sI9110
I1
sI9111
I1
sI9112
I1
sI9113
I1
sI9114
I1
sI9115
I1
sI9116
I1
sI9117
I1
sI9118
I1
sI9119
I1
sI9120
I1
sI9121
I2
sI9122
I1
sI9123
I1
sI9124
I1
sI9125
I1
sI9126
I1
sI9127
I1
sI9128
I1
sI9129
I1
sI9130
I1
sI9131
I1
sI9132
I1
sI9133
I1
sI9134
I1
sI9135
I1
sI9136
I1
sI9137
I1
sI9138
I1
sI9139
I1
sI9140
I1
sI9141
I1
sI9142
I1
sI9143
I1
sI9144
I1
sI9145
I1
sI9146
I1
sI9147
I1
sI9148
I1
sI9149
I1
sI9150
I1
sI9151
I1
sI9152
I1
sI9153
I1
sI9154
I1
sI9155
I1
sI9156
I1
sI9157
I1
sI9158
I1
sI9159
I2
sI9160
I1
sI9161
I1
sI9162
I1
sI9163
I1
sI9164
I1
sI9165
I1
sI9166
I1
sI9167
I1
sI9168
I1
sI9169
I1
sI9170
I1
sI9171
I1
sI9172
I1
sI9173
I1
sI9174
I1
sI9175
I1
sI9176
I1
sI9177
I1
sI9178
I1
sI9179
I1
sI9180
I1
sI9181
I2
sI9182
I1
sI9183
I1
sI9184
I1
sI9185
I1
sI9186
I1
sI9187
I1
sI9188
I1
sI9189
I1
sI9190
I1
sI9191
I1
sI9192
I1
sI9193
I1
sI9194
I1
sI9195
I1
sI9196
I1
sI9197
I1
sI9198
I1
sI9199
I1
sI9200
I1
sI9201
I1
sI9202
I2
sI9203
I1
sI9204
I1
sI9205
I1
sI9206
I1
sI9207
I1
sI9208
I1
sI9209
I1
sI9210
I1
sI9211
I1
sI9212
I1
sI9213
I1
sI9214
I1
sI9215
I1
sI9216
I1
sI9217
I1
sI9218
I1
sI9219
I1
sI9220
I1
sI9221
I1
sI9222
I2
sI9223
I1
sI9224
I1
sI9225
I1
sI9226
I1
sI9227
I1
sI9228
I1
sI9229
I1
sI9230
I1
sI9231
I1
sI9232
I1
sI9233
I1
sI9234
I1
sI9235
I1
sI9236
I2
sI9237
I1
sI9238
I1
sI9239
I1
sI9240
I2
sI9241
I1
sI9242
I1
sI9243
I1
sI9244
I1
sI9245
I1
sI9246
I1
sI9247
I1
sI9248
I1
sI9249
I1
sI9250
I1
sI9251
I2
sI9252
I1
sI9253
I1
sI9254
I1
sI9255
I1
sI9256
I1
sI9257
I1
sI9258
I1
sI9259
I1
sI9260
I1
sI9261
I1
sI9262
I2
sI9263
I1
sI9264
I1
sI9265
I1
sI9266
I1
sI9267
I1
sI9268
I1
sI9269
I1
sI9270
I1
sI9271
I1
sI9272
I1
sI9273
I1
sI9274
I1
sI9275
I1
sI9276
I1
sI9277
I1
sI9278
I1
sI9279
I1
sI9280
I1
sI9281
I1
sI9282
I1
sI9283
I1
sI9284
I1
sI9285
I1
sI9286
I1
sI9287
I1
sI9288
I1
sI9289
I1
sI9290
I1
sI9291
I1
sI9292
I1
sI9293
I1
sI9294
I1
sI9295
I1
sI9296
I1
sI9297
I1
sI9298
I1
sI9299
I1
sI9300
I1
sI9301
I1
sI9302
I1
sI9303
I2
sI9304
I1
sI9305
I1
sI9306
I1
sI9307
I2
sI9308
I1
sI9309
I1
sI9310
I1
sI9311
I1
sI9312
I1
sI9313
I1
sI9314
I4
sI9315
I1
sI9316
I1
sI9317
I1
sI9318
I1
sI9319
I1
sI9320
I1
sI9321
I2
sI9322
I1
sI9323
I1
sI9324
I1
sI9325
I1
sI9326
I1
sI9327
I1
sI9328
I1
sI9329
I1
sI9330
I1
sI9331
I2
sI9332
I1
sI9333
I1
sI9334
I1
sI9335
I1
sI9336
I1
sI9337
I1
sI9338
I1
sI9339
I1
sI9340
I1
sI9341
I1
sI9342
I1
sI9343
I1
sI9344
I1
sI9345
I1
sI9346
I1
sI9347
I1
sI9348
I1
sI9349
I1
sI9350
I3
sI9351
I1
sI9352
I1
sI9353
I1
sI9354
I1
sI9355
I1
sI9356
I1
sI9357
I1
sI9358
I1
sI9359
I1
sI9360
I1
sI9361
I1
sI9362
I1
sI9363
I1
sI9364
I1
sI9365
I1
sI9366
I2
sI9367
I1
s.